SH SERIES C/C++ Compiler (V.9.04.02.001)                                                         26-Sep-2023 20:01:46  PAGE    1

************ OBJECT LISTING ************

FILE NAME: C:\CasioSDK\Projects\Minecalc3\graphic.c

SCT OFFSET   CODE       C LABEL     INSTRUCTION OPERAND    COMMENT

            graphic.c          1    #include "graphic.h"
            graphic.c          2    
            graphic.c          3    #define BUF_SIZ 768
            graphic.c          4    
            graphic.c          5    // problem with this approach is that the number of triangles is very limited for cubes (12 triangle/cube) 
            graphic.c          6    // a cube at (0,0,0) should be stored and other cubes should be references to it (a usable system)
            graphic.c          7    
            graphic.c          8    // texture IDs in graphic.h
            graphic.c          9    
            graphic.c         10    uint8_t textures[TX_CNT][8] = {
            graphic.c         11          {0x00,0x00,0x00,0x00,0x00,0x00,0x00,0x00},
            graphic.c         12          {0xFF,0x01,0x01,0x01,0x01,0x01,0x01,0xFF},
            graphic.c         13          {0xFF,0xFF,0xFF,0xFF,0xFF,0xFF,0xFF,0xFF},
            graphic.c         14          {0xAA,0x55,0xAA,0x55,0xAA,0x55,0xAA,0x55},
            graphic.c         15          {0x33,0x33,0xCC,0xCC,0x33,0x33,0xCC,0xCC},
            graphic.c         16          {0xAA,0xAA,0xAA,0xAA,0xAA,0xAA,0xAA,0xAA},
            graphic.c         17          {0x55,0x55,0x55,0x55,0x55,0x55,0x55,0x55}
            graphic.c         18    };
            graphic.c         19    
            graphic.c         20    
            graphic.c         21    // global coordination variables
            graphic.c         22    fixed p, y; // pitch, yaw
            graphic.c         23    vec3f o; // origin point (camera)
            graphic.c         24    
            graphic.c         25    
            graphic.c         26    // z buffer, triangle indexing
            graphic.c         27    
            graphic.c         28    trianglef *zbuf;
            graphic.c         29    unsigned short zbuf_idx = 0;
            graphic.c         30    signed short zindex_max = 0;
            graphic.c         31    uint32_t uuid = 1;                            // nothing gets UUID 0
            graphic.c         32    
            graphic.c         33    // shouldn't run two draws at the same time
            graphic.c         34    volatile int lock = 0;
            graphic.c         35    
            graphic.c         36    
            graphic.c         37    // initialize all buffers (static alloc for buffers is not possible)
            graphic.c         38    int g_init(void) {
P   00000000              _g_init:                         ; function: g_init
                                                           ; frame size=4
    00000000 4F22                   STS.L       PR,@-R15
            graphic.c         39          zbuf = (trianglef *)malloc(BUF_SIZ*sizeof(trianglef));
    00000002 D184                   MOV.L       L184,R1    ; _malloc
    00000004 D484                   MOV.L       L184+4,R4  ; H'00008400
    00000006 410B                   JSR         @R1
    00000008 0009                   NOP
            graphic.c         40    
            graphic.c         41          if (zbuf == NULL) return G_EALLOC;      
    0000000A 2008                   TST         R0,R0
    0000000C D583                   MOV.L       L184+8,R5  ; _zbuf
    0000000E 6403                   MOV         R0,R4
    00000010 8D0F                   BT/S        L11
    00000012 2502                   MOV.L       R0,@R5     ; zbuf
    00000014 D782                   MOV.L       L184+12,R7 ; _memset
    00000016 D680                   MOV.L       L184+4,R6  ; H'00008400
    00000018 470B                   JSR         @R7
    0000001A E500                   MOV         #0,R5      ; H'00000000
    0000001C D281                   MOV.L       L184+16,R2 ; _zbuf_idx
    0000001E E100                   MOV         #0,R1      ; H'00000000
    00000020 D481                   MOV.L       L184+20,R4 ; _zindex_max
    00000022 D582                   MOV.L       L184+24,R5 ; _uuid
    00000024 2211                   MOV.W       R1,@R2     ; zbuf_idx
    00000026 E201                   MOV         #1,R2      ; H'00000001
    00000028 2411                   MOV.W       R1,@R4     ; zindex_max
    0000002A 2522                   MOV.L       R2,@R5     ; uuid
            graphic.c         42    
            graphic.c         43          g_clrbuf();
            graphic.c         44    
            graphic.c         45          return G_SUCCESS;
    0000002C 4F26                   LDS.L       @R15+,PR
    0000002E 000B                   RTS
    00000030 E000                   MOV         #0,R0      ; H'00000000
    00000032              L11:
    00000032 4F26                   LDS.L       @R15+,PR
    00000034 000B                   RTS
    00000036 E001                   MOV         #1,R0      ; H'00000001
            graphic.c         46    }
            graphic.c         47    
            graphic.c         48    // clear buffers, initialize 
            graphic.c         49    void g_clrbuf(void) {
    00000038              _g_clrbuf:                       ; function: g_clrbuf
                                                           ; frame size=4
    00000038 4F22                   STS.L       PR,@-R15
    0000003A D178                   MOV.L       L184+8,R1  ; _zbuf
            graphic.c         50          memset((char *)zbuf, 0, BUF_SIZ*sizeof(trianglef));
    0000003C D778                   MOV.L       L184+12,R7 ; _memset
    0000003E 6412                   MOV.L       @R1,R4     ; zbuf
    00000040 D675                   MOV.L       L184+4,R6  ; H'00008400
    00000042 470B                   JSR         @R7
    00000044 E500                   MOV         #0,R5      ; H'00000000
    00000046 D277                   MOV.L       L184+16,R2 ; _zbuf_idx
            graphic.c         51          zbuf_idx = 0;
    00000048 E100                   MOV         #0,R1      ; H'00000000
            graphic.c         52          zindex_max = 0;
    0000004A D477                   MOV.L       L184+20,R4 ; _zindex_max
    0000004C D577                   MOV.L       L184+24,R5 ; _uuid
    0000004E 2211                   MOV.W       R1,@R2     ; zbuf_idx
            graphic.c         53          uuid = 1;
    00000050 E201                   MOV         #1,R2      ; H'00000001
    00000052 2411                   MOV.W       R1,@R4     ; zindex_max
    00000054 4F26                   LDS.L       @R15+,PR
            graphic.c         54    }
    00000056 000B                   RTS
    00000058 2522                   MOV.L       R2,@R5     ; uuid
            graphic.c         55    
            graphic.c         56    uint32_t g_addtriangle(vec3f a, vec3f b, vec3f c, unsigned char color) {
    0000005A              _g_addtriangle:                  ; function: g_addtriangle
                                                           ; frame size=92
    0000005A 4F22                   STS.L       PR,@-R15
    0000005C 4F12                   STS.L       MACL,@-R15
    0000005E 7FD4                   ADD         #-44,R15
    00000060 D170                   MOV.L       L184+16,R1 ; _zbuf_idx
            graphic.c         57          if (zbuf_idx < BUF_SIZ-1) {
    00000062 6543                   MOV         R4,R5
    00000064 6411                   MOV.W       @R1,R4     ; zbuf_idx
    00000066 E703                   MOV         #3,R7      ; H'00000003
    00000068 4718                   SHLL8       R7
    0000006A 624D                   EXTU.W      R4,R2
    0000006C 77FF                   ADD         #-1,R7
    0000006E 3273                   CMP/GE      R7,R2
    00000070 894A                   BT          L17
            graphic.c         58                  zbuf[zbuf_idx++] = itrianglef(a, b, c, color, uuid);
    00000072 7FF4                   ADD         #-12,R15
    00000074 64F3                   MOV         R15,R4
    00000076 7458                   ADD         #88,R4
    00000078 6242                   MOV.L       @R4,R2     ; (part of)c
    0000007A 5141                   MOV.L       @(4,R4),R1 ; (part of)c
    0000007C 5642                   MOV.L       @(8,R4),R6 ; (part of)c
    0000007E 2F22                   MOV.L       R2,@R15
    00000080 1F11                   MOV.L       R1,@(4,R15)
    00000082 1F62                   MOV.L       R6,@(8,R15)
    00000084 7FF4                   ADD         #-12,R15
    00000086 64F3                   MOV         R15,R4
    00000088 7458                   ADD         #88,R4
    0000008A 6142                   MOV.L       @R4,R1     ; (part of)b
    0000008C 5741                   MOV.L       @(4,R4),R7 ; (part of)b
    0000008E 2F12                   MOV.L       R1,@R15
    00000090 5142                   MOV.L       @(8,R4),R1 ; (part of)b
    00000092 1F71                   MOV.L       R7,@(4,R15)
    00000094 1F12                   MOV.L       R1,@(8,R15)
    00000096 7FF4                   ADD         #-12,R15
    00000098 64F3                   MOV         R15,R4
    0000009A 7458                   ADD         #88,R4
    0000009C 6742                   MOV.L       @R4,R7     ; (part of)a
    0000009E 5241                   MOV.L       @(4,R4),R2 ; (part of)a
    000000A0 5142                   MOV.L       @(8,R4),R1 ; (part of)a
    000000A2 645C                   EXTU.B      R5,R4
    000000A4 65F3                   MOV         R15,R5
    000000A6 7524                   ADD         #36,R5
    000000A8 2F72                   MOV.L       R7,@R15
    000000AA 1F21                   MOV.L       R2,@(4,R15)
    000000AC 1F12                   MOV.L       R1,@(8,R15)
    000000AE 2F56                   MOV.L       R5,@-R15
    000000B0 D65E                   MOV.L       L184+24,R6 ; _uuid
    000000B2 D15F                   MOV.L       L184+28,R1 ; _itrianglef
    000000B4 410B                   JSR         @R1
    000000B6 6562                   MOV.L       @R6,R5     ; uuid
    000000B8 7F28                   ADD         #40,R15
    000000BA D15A                   MOV.L       L184+16,R1 ; _zbuf_idx
    000000BC E72C                   MOV         #44,R7     ; H'0000002C
    000000BE 6511                   MOV.W       @R1,R5     ; zbuf_idx
    000000C0 56F2                   MOV.L       @(8,R15),R6
    000000C2 645D                   EXTU.W      R5,R4
    000000C4 0747                   MUL.L       R4,R7
    000000C6 7501                   ADD         #1,R5
    000000C8 2151                   MOV.W       R5,@R1     ; zbuf_idx
    000000CA D554                   MOV.L       L184+8,R5  ; _zbuf
    000000CC 071A                   STS         MACL,R7
    000000CE 6552                   MOV.L       @R5,R5     ; zbuf
    000000D0 64F2                   MOV.L       @R15,R4
    000000D2 51F1                   MOV.L       @(4,R15),R1
    000000D4 52F3                   MOV.L       @(12,R15),R2
    000000D6 357C                   ADD         R7,R5
    000000D8 2542                   MOV.L       R4,@R5     ; (part of)zbuf[]
    000000DA 1511                   MOV.L       R1,@(4,R5) ; (part of)zbuf[]
    000000DC 1562                   MOV.L       R6,@(8,R5) ; (part of)zbuf[]
    000000DE 1523                   MOV.L       R2,@(12,R5); (part of)zbuf[]
    000000E0 56F4                   MOV.L       @(16,R15),R6
    000000E2 52F5                   MOV.L       @(20,R15),R2
    000000E4 1564                   MOV.L       R6,@(16,R5); (part of)zbuf[]
    000000E6 1525                   MOV.L       R2,@(20,R5); (part of)zbuf[]
    000000E8 56F6                   MOV.L       @(24,R15),R6
    000000EA 52F7                   MOV.L       @(28,R15),R2
    000000EC 1566                   MOV.L       R6,@(24,R5); (part of)zbuf[]
    000000EE 1527                   MOV.L       R2,@(28,R5); (part of)zbuf[]
    000000F0 56F8                   MOV.L       @(32,R15),R6
    000000F2 52F9                   MOV.L       @(36,R15),R2
    000000F4 1568                   MOV.L       R6,@(32,R5); (part of)zbuf[]
    000000F6 1529                   MOV.L       R2,@(36,R5); (part of)zbuf[]
    000000F8 52FA                   MOV.L       @(40,R15),R2
            graphic.c         59                  return uuid++;
    000000FA D74C                   MOV.L       L184+24,R7 ; _uuid
    000000FC 152A                   MOV.L       R2,@(40,R5); (part of)zbuf[]
    000000FE 6072                   MOV.L       @R7,R0     ; uuid
    00000100 6503                   MOV         R0,R5
    00000102 7501                   ADD         #1,R5
    00000104 A001                   BRA         L18
    00000106 2752                   MOV.L       R5,@R7     ; uuid
    00000108              L17:
            graphic.c         60          }
            graphic.c         61          return 0;
    00000108 E000                   MOV         #0,R0      ; H'00000000
    0000010A              L18:
    0000010A 7F2C                   ADD         #44,R15
    0000010C 4F16                   LDS.L       @R15+,MACL
    0000010E 4F26                   LDS.L       @R15+,PR
            graphic.c         62    }
    00000110 000B                   RTS
    00000112 0009                   NOP
            graphic.c         63    
            graphic.c         64    int g_removetriangle(uint32_t id) {
    00000114              _g_removetriangle:               ; function: g_removetriangle
                                                           ; frame size=20
    00000114 2FC6                   MOV.L       R12,@-R15
    00000116 2FD6                   MOV.L       R13,@-R15
    00000118 2FE6                   MOV.L       R14,@-R15
    0000011A 4F12                   STS.L       MACL,@-R15
    0000011C 7FFC                   ADD         #-4,R15
    0000011E DC41                   MOV.L       L184+16,R12; _zbuf_idx
    00000120 6143                   MOV         R4,R1
    00000122 6EC1                   MOV.W       @R12,R14   ; zbuf_idx
    00000124 65ED                   EXTU.W      R14,R5
    00000126 6453                   MOV         R5,R4
    00000128 74FF                   ADD         #-1,R4
    0000012A 3547                   CMP/GT      R4,R5
    0000012C 8F20                   BF/S        L21
    0000012E E700                   MOV         #0,R7      ; H'00000000
            graphic.c         65          int i, j;
            graphic.c         66          for(i = 0; i < zbuf_idx; i++) {
    00000130 4415                   CMP/PL      R4
    00000132 8B10                   BF          L23
    00000134 DD39                   MOV.L       L184+8,R13 ; _zbuf
    00000136 66D2                   MOV.L       @R13,R6    ; zbuf
    00000138 7628                   ADD         #40,R6
    0000013A              L24:
    0000013A 6262                   MOV.L       @R6,R2     ; zbuf[].id
    0000013C 3210                   CMP/EQ      R1,R2
    0000013E 8925                   BT          L26
            graphic.c         67                  if (zbuf[i].id == id) {
    00000140 526B                   MOV.L       @(44,R6),R2; zbuf[].id
    00000142 3210                   CMP/EQ      R1,R2
    00000144 8905                   BT          L28
    00000146 7702                   ADD         #2,R7
    00000148 3743                   CMP/GE      R4,R7
    0000014A 8FF6                   BF/S        L24
    0000014C 7658                   ADD         #88,R6
    0000014E A002                   BRA         L23
    00000150 0009                   NOP
    00000152              L28:
    00000152 A01B                   BRA         L26
    00000154 7701                   ADD         #1,R7
    00000156              L23:
    00000156 3753                   CMP/GE      R5,R7
    00000158 8947                   BT          L30
    0000015A E42C                   MOV         #44,R4     ; H'0000002C
    0000015C 0477                   MUL.L       R7,R4
    0000015E DD2F                   MOV.L       L184+8,R13 ; _zbuf
    00000160 001A                   STS         MACL,R0
    00000162 65D2                   MOV.L       @R13,R5    ; zbuf
    00000164 7528                   ADD         #40,R5
    00000166 055E                   MOV.L       @(R0,R5),R5; zbuf[].id
    00000168 3510                   CMP/EQ      R1,R5
    0000016A 890F                   BT          L26
    0000016C A03D                   BRA         L30
    0000016E 0009                   NOP
    00000170              L21:
    00000170 4515                   CMP/PL      R5
    00000172 8B3A                   BF          L30
    00000174 DD29                   MOV.L       L184+8,R13 ; _zbuf
    00000176 66D2                   MOV.L       @R13,R6    ; zbuf
    00000178 7628                   ADD         #40,R6
    0000017A              L32:
    0000017A 6262                   MOV.L       @R6,R2     ; zbuf[].id
    0000017C 3210                   CMP/EQ      R1,R2
    0000017E 8905                   BT          L26
    00000180 4510                   DT          R5
    00000182 7701                   ADD         #1,R7
    00000184 8FF9                   BF/S        L32
    00000186 762C                   ADD         #44,R6
    00000188 A02F                   BRA         L30
    0000018A 0009                   NOP
    0000018C              L26:
            graphic.c         68                          for (j = i; j < (zbuf_idx-1); j++) {
    0000018C 6EED                   EXTU.W      R14,R14
    0000018E 62E3                   MOV         R14,R2
    00000190 72FF                   ADD         #-1,R2
    00000192 3723                   CMP/GE      R2,R7
    00000194 8925                   BT          L35
    00000196 E22C                   MOV         #44,R2     ; H'0000002C
    00000198 0277                   MUL.L       R7,R2
    0000019A 011A                   STS         MACL,R1
    0000019C              L36:
            graphic.c         69                                  zbuf[j] = zbuf[j+1];
    0000019C 64D2                   MOV.L       @R13,R4    ; zbuf
    0000019E 7701                   ADD         #1,R7
    000001A0 341C                   ADD         R1,R4
    000001A2 6543                   MOV         R4,R5
    000001A4 742C                   ADD         #44,R4
    000001A6 6242                   MOV.L       @R4,R2     ; (part of)zbuf[]
    000001A8 5E41                   MOV.L       @(4,R4),R14; (part of)zbuf[]
    000001AA 2522                   MOV.L       R2,@R5     ; (part of)zbuf[]
    000001AC 15E1                   MOV.L       R14,@(4,R5); (part of)zbuf[]
    000001AE 5E42                   MOV.L       @(8,R4),R14; (part of)zbuf[]
    000001B0 5643                   MOV.L       @(12,R4),R6; (part of)zbuf[]
    000001B2 15E2                   MOV.L       R14,@(8,R5); (part of)zbuf[]
    000001B4 1563                   MOV.L       R6,@(12,R5); (part of)zbuf[]
    000001B6 5E44                   MOV.L       @(16,R4),R14; (part of)zbuf[]
    000001B8 5645                   MOV.L       @(20,R4),R6; (part of)zbuf[]
    000001BA 15E4                   MOV.L       R14,@(16,R5); (part of)zbuf[]
    000001BC 1565                   MOV.L       R6,@(20,R5); (part of)zbuf[]
    000001BE 5246                   MOV.L       @(24,R4),R2; (part of)zbuf[]
    000001C0 5647                   MOV.L       @(28,R4),R6; (part of)zbuf[]
    000001C2 1526                   MOV.L       R2,@(24,R5); (part of)zbuf[]
    000001C4 1567                   MOV.L       R6,@(28,R5); (part of)zbuf[]
    000001C6 5648                   MOV.L       @(32,R4),R6; (part of)zbuf[]
    000001C8 5249                   MOV.L       @(36,R4),R2; (part of)zbuf[]
    000001CA 1568                   MOV.L       R6,@(32,R5); (part of)zbuf[]
    000001CC 1529                   MOV.L       R2,@(36,R5); (part of)zbuf[]
    000001CE 524A                   MOV.L       @(40,R4),R2; (part of)zbuf[]
    000001D0 152A                   MOV.L       R2,@(40,R5); (part of)zbuf[]
    000001D2 6EC1                   MOV.W       @R12,R14   ; zbuf_idx
    000001D4 6EED                   EXTU.W      R14,R14
    000001D6 64E3                   MOV         R14,R4
    000001D8 74FF                   ADD         #-1,R4
    000001DA 3743                   CMP/GE      R4,R7
    000001DC 8FDE                   BF/S        L36
    000001DE 712C                   ADD         #44,R1
    000001E0 2F52                   MOV.L       R5,@R15
    000001E2              L35:
            graphic.c         70                          }
            graphic.c         71                          zbuf_idx--;
    000001E2 7EFF                   ADD         #-1,R14
    000001E4 2CE1                   MOV.W       R14,@R12   ; zbuf_idx
            graphic.c         72                          return G_SUCCESS;
    000001E6 A001                   BRA         L38
    000001E8 E000                   MOV         #0,R0      ; H'00000000
    000001EA              L30:
            graphic.c         73                  }
            graphic.c         74          }
            graphic.c         75          return G_ENEXIST;
    000001EA E004                   MOV         #4,R0      ; H'00000004
    000001EC              L38:
    000001EC 7F04                   ADD         #4,R15
    000001EE 4F16                   LDS.L       @R15+,MACL
    000001F0 6EF6                   MOV.L       @R15+,R14
    000001F2 6DF6                   MOV.L       @R15+,R13
            graphic.c         76    }
    000001F4 000B                   RTS
    000001F6 6CF6                   MOV.L       @R15+,R12
            graphic.c         77    
            graphic.c         78    void g_coord(vec3f _pos, fixed _pitch, fixed _yaw) {
    000001F8              _g_coord:                        ; function: g_coord
                                                           ; frame size=0
    000001F8 67F3                   MOV         R15,R7
            graphic.c         79          o = _pos;
    000001FA 6153                   MOV         R5,R1
    000001FC 5671                   MOV.L       @(4,R7),R6 ; (part of)_pos
    000001FE D50D                   MOV.L       L184+32,R5 ; _o
    00000200 6272                   MOV.L       @R7,R2     ; (part of)_pos
    00000202 1561                   MOV.L       R6,@(4,R5) ; (part of)o
    00000204 5672                   MOV.L       @(8,R7),R6 ; (part of)_pos
            graphic.c         80          p = _pitch;
    00000206 D70C                   MOV.L       L184+36,R7 ; _p
    00000208 2522                   MOV.L       R2,@R5     ; (part of)o
    0000020A 2742                   MOV.L       R4,@R7     ; p
            graphic.c         81          y = _yaw;
    0000020C D40B                   MOV.L       L184+40,R4 ; _y
    0000020E 1562                   MOV.L       R6,@(8,R5) ; (part of)o
            graphic.c         82    }
    00000210 000B                   RTS
    00000212 2412                   MOV.L       R1,@R4     ; y
    00000214              L184:
    00000214 <00000000>             .DATA.L     _malloc
    00000218 00008400               .DATA.L     H'00008400
    0000021C <00000000>             .DATA.L     _zbuf
    00000220 <00000000>             .DATA.L     _memset
    00000224 <00000000>             .DATA.L     _zbuf_idx
    00000228 <00000000>             .DATA.L     _zindex_max
    0000022C <00000000>             .DATA.L     _uuid
    00000230 <00000000>             .DATA.L     _itrianglef
    00000234 <00000000>             .DATA.L     _o
    00000238 <00000000>             .DATA.L     _p
    0000023C <00000000>             .DATA.L     _y
            graphic.c         83    
            graphic.c         84    // the worst zsort algorithm you have ever seen
            graphic.c         85    
            graphic.c         86    // the function does not only z sorting but culling as well
            graphic.c         87    
            graphic.c         88    /* the way it works:
            graphic.c         89          distances is filled with - well - the distances (-1 means the triangle was culled)
            graphic.c         90          every triangle has a .zindex member, that is filled with the number of triangles closer to it
            graphic.c         91          then, they will get drawn in the order of zindexes. */
            graphic.c         92          
            graphic.c         93    void g_sort(void) {
    00000240              _g_sort:                         ; function: g_sort
                                                           ; frame size=3264
    00000240 2F86                   MOV.L       R8,@-R15
    00000242 2F96                   MOV.L       R9,@-R15
    00000244 2FA6                   MOV.L       R10,@-R15
    00000246 2FB6                   MOV.L       R11,@-R15
    00000248 2FC6                   MOV.L       R12,@-R15
    0000024A 2FD6                   MOV.L       R13,@-R15
    0000024C 2FE6                   MOV.L       R14,@-R15
    0000024E 4F22                   STS.L       PR,@-R15
    00000250 4F12                   STS.L       MACL,@-R15
    00000252 4F02                   STS.L       MACH,@-R15
    00000254 93B9                   MOV.W       L186,R3    ; H'F3A4
    00000256 3F3C                   ADD         R3,R15
            graphic.c         94          fixed distances[BUF_SIZ];
            graphic.c         95          trianglef rel; // current triangle relative to the camera
            graphic.c         96        vec3f ctr, nrm, ctot;
            graphic.c         97          int i, j;
            graphic.c         98    
            graphic.c         99          vec3f ptr = ivec3f(0, 0, int2f(1));
    00000258 61F3                   MOV         R15,R1
    0000025A 2F16                   MOV.L       R1,@-R15
    0000025C D8AB                   MOV.L       L187+2,R8  ; _ivec3f
    0000025E E500                   MOV         #0,R5      ; H'00000000
    00000260 E604                   MOV         #4,R6      ; H'00000004
    00000262 6453                   MOV         R5,R4
    00000264 480B                   JSR         @R8
    00000266 4618                   SHLL8       R6
    00000268 7F04                   ADD         #4,R15
            graphic.c        100    
            graphic.c        101          for (i = 0; i < zbuf_idx; i++) {
    0000026A DEA9                   MOV.L       L187+6,R14 ; _zbuf_idx
    0000026C 62E1                   MOV.W       @R14,R2    ; zbuf_idx
    0000026E 622D                   EXTU.W      R2,R2
    00000270 4215                   CMP/PL      R2
    00000272 8D02                   BT/S        L208
    00000274 ED00                   MOV         #0,R13     ; H'00000000
    00000276 A0FB                   BRA         L42
    00000278 0009                   NOP
    0000027A              L208:
    0000027A EA02                   MOV         #2,R10     ; H'00000002
    0000027C 4A18                   SHLL8       R10
    0000027E DCA5                   MOV.L       L187+10,R12; _o
    00000280              L43:
            graphic.c        102                  rel = move(zbuf[i], o, p, y); // transform to screenspace
    00000280 E42C                   MOV         #44,R4     ; H'0000002C
    00000282 04D7                   MUL.L       R13,R4
    00000284 0E1A                   STS         MACL,R14
    00000286 7FF4                   ADD         #-12,R15
    00000288 65C2                   MOV.L       @R12,R5    ; (part of)o
    0000028A 54C1                   MOV.L       @(4,R12),R4; (part of)o
    0000028C 2F52                   MOV.L       R5,@R15
    0000028E 55C2                   MOV.L       @(8,R12),R5; (part of)o
    00000290 1F41                   MOV.L       R4,@(4,R15)
    00000292 1F52                   MOV.L       R5,@(8,R15)
    00000294 7FD4                   ADD         #-44,R15
    00000296 D5A0                   MOV.L       L187+14,R5 ; _zbuf
    00000298 6252                   MOV.L       @R5,R2     ; zbuf
    0000029A 32EC                   ADD         R14,R2
    0000029C 5921                   MOV.L       @(4,R2),R9 ; (part of)zbuf[]
    0000029E 6722                   MOV.L       @R2,R7     ; (part of)zbuf[]
    000002A0 1F91                   MOV.L       R9,@(4,R15)
    000002A2 5922                   MOV.L       @(8,R2),R9 ; (part of)zbuf[]
    000002A4 5B23                   MOV.L       @(12,R2),R11; (part of)zbuf[]
    000002A6 1F92                   MOV.L       R9,@(8,R15)
    000002A8 5125                   MOV.L       @(20,R2),R1; (part of)zbuf[]
    000002AA 5427                   MOV.L       @(28,R2),R4; (part of)zbuf[]
    000002AC E90C                   MOV         #12,R9     ; H'0000000C
    000002AE 4918                   SHLL8       R9
    000002B0 2F72                   MOV.L       R7,@R15
    000002B2 1FB3                   MOV.L       R11,@(12,R15)
    000002B4 5B24                   MOV.L       @(16,R2),R11; (part of)zbuf[]
    000002B6 1F15                   MOV.L       R1,@(20,R15)
    000002B8 5126                   MOV.L       @(24,R2),R1; (part of)zbuf[]
    000002BA 1F47                   MOV.L       R4,@(28,R15)
    000002BC 5428                   MOV.L       @(32,R2),R4; (part of)zbuf[]
    000002BE 5529                   MOV.L       @(36,R2),R5; (part of)zbuf[]
    000002C0 562A                   MOV.L       @(40,R2),R6; (part of)zbuf[]
    000002C2 7950                   ADD         #80,R9
    000002C4 67F3                   MOV         R15,R7
    000002C6 379C                   ADD         R9,R7
    000002C8 1FB4                   MOV.L       R11,@(16,R15)
    000002CA 1F16                   MOV.L       R1,@(24,R15)
    000002CC 1F48                   MOV.L       R4,@(32,R15)
    000002CE 1F59                   MOV.L       R5,@(36,R15)
    000002D0 1F6A                   MOV.L       R6,@(40,R15)
    000002D2 2F76                   MOV.L       R7,@-R15
    000002D4 D691                   MOV.L       L187+18,R6 ; _y
    000002D6 D992                   MOV.L       L187+22,R9 ; _p
    000002D8 6562                   MOV.L       @R6,R5     ; y
    000002DA DB92                   MOV.L       L187+26,R11; _move
    000002DC 4B0B                   JSR         @R11
    000002DE 6492                   MOV.L       @R9,R4     ; p
    000002E0 7F3C                   ADD         #60,R15
            graphic.c        103    
            graphic.c        104                  ctr = ivec3f((rel.a.x+rel.b.x+rel.c.x),
            graphic.c        105                         (rel.a.y+rel.b.y+rel.c.y),
            graphic.c        106                         (rel.a.z+rel.b.z+rel.c.z)); // get center point of triangle
    000002E2 E30C                   MOV         #12,R3     ; H'0000000C
    000002E4 4318                   SHLL8       R3
    000002E6 7318                   ADD         #24,R3
    000002E8 33FC                   ADD         R15,R3
    000002EA 5B32                   MOV.L       @(8,R3),R11; rel.a.z
    000002EC 5935                   MOV.L       @(20,R3),R9; rel.b.z
    000002EE 66B3                   MOV         R11,R6
    000002F0 5138                   MOV.L       @(32,R3),R1; rel.c.z
    000002F2 369C                   ADD         R9,R6
    000002F4 361C                   ADD         R1,R6
    000002F6 5531                   MOV.L       @(4,R3),R5 ; rel.a.y
    000002F8 5134                   MOV.L       @(16,R3),R1; rel.b.y
    000002FA 5437                   MOV.L       @(28,R3),R4; rel.c.y
    000002FC 351C                   ADD         R1,R5
    000002FE 354C                   ADD         R4,R5
    00000300 6432                   MOV.L       @R3,R4     ; rel.a.x
    00000302 5733                   MOV.L       @(12,R3),R7; rel.b.x
    00000304 5136                   MOV.L       @(24,R3),R1; rel.c.x
    00000306 347C                   ADD         R7,R4
    00000308 341C                   ADD         R1,R4
    0000030A E10C                   MOV         #12,R1     ; H'0000000C
    0000030C 4118                   SHLL8       R1
    0000030E 710C                   ADD         #12,R1
    00000310 67F3                   MOV         R15,R7
    00000312 371C                   ADD         R1,R7
    00000314 480B                   JSR         @R8
    00000316 2F76                   MOV.L       R7,@-R15
    00000318 7FD8                   ADD         #-40,R15
            graphic.c        107    
            graphic.c        108                  nrm = normal(zbuf[i]);
    0000031A D77F                   MOV.L       L187+14,R7 ; _zbuf
    0000031C 6572                   MOV.L       @R7,R5     ; zbuf
    0000031E 35EC                   ADD         R14,R5
    00000320 6252                   MOV.L       @R5,R2     ; (part of)zbuf[]
    00000322 5151                   MOV.L       @(4,R5),R1 ; (part of)zbuf[]
    00000324 2F22                   MOV.L       R2,@R15
    00000326 1F11                   MOV.L       R1,@(4,R15)
    00000328 5153                   MOV.L       @(12,R5),R1; (part of)zbuf[]
    0000032A 5255                   MOV.L       @(20,R5),R2; (part of)zbuf[]
    0000032C 5659                   MOV.L       @(36,R5),R6; (part of)zbuf[]
    0000032E 5452                   MOV.L       @(8,R5),R4 ; (part of)zbuf[]
    00000330 1F13                   MOV.L       R1,@(12,R15)
    00000332 5154                   MOV.L       @(16,R5),R1; (part of)zbuf[]
    00000334 1F25                   MOV.L       R2,@(20,R15)
    00000336 5257                   MOV.L       @(28,R5),R2; (part of)zbuf[]
    00000338 1F69                   MOV.L       R6,@(36,R15)
    0000033A E60C                   MOV         #12,R6     ; H'0000000C
    0000033C 4618                   SHLL8       R6
    0000033E 1F42                   MOV.L       R4,@(8,R15)
    00000340 1F14                   MOV.L       R1,@(16,R15)
    00000342 5456                   MOV.L       @(24,R5),R4; (part of)zbuf[]
    00000344 1F27                   MOV.L       R2,@(28,R15)
    00000346 5158                   MOV.L       @(32,R5),R1; (part of)zbuf[]
    00000348 525A                   MOV.L       @(40,R5),R2; (part of)zbuf[]
    0000034A 7670                   ADD         #112,R6
    0000034C 65F3                   MOV         R15,R5
    0000034E 356C                   ADD         R6,R5
    00000350 1F46                   MOV.L       R4,@(24,R15)
    00000352 1F18                   MOV.L       R1,@(32,R15)
    00000354 1F2A                   MOV.L       R2,@(40,R15)
    00000356 D774                   MOV.L       L187+30,R7 ; _normal
    00000358 470B                   JSR         @R7
    0000035A 2F56                   MOV.L       R5,@-R15
    0000035C 7F24                   ADD         #36,R15
            graphic.c        109                  ctot = subvv(zbuf[i].a, o);
    0000035E 62C2                   MOV.L       @R12,R2    ; (part of)o
    00000360 56C1                   MOV.L       @(4,R12),R6; (part of)o
    00000362 2F22                   MOV.L       R2,@R15
    00000364 52C2                   MOV.L       @(8,R12),R2; (part of)o
    00000366 1F61                   MOV.L       R6,@(4,R15)
    00000368 1F22                   MOV.L       R2,@(8,R15)
    0000036A 7FF4                   ADD         #-12,R15
    0000036C D76A                   MOV.L       L187+14,R7 ; _zbuf
    0000036E 6272                   MOV.L       @R7,R2     ; zbuf
    00000370 32EC                   ADD         R14,R2
    00000372 6E22                   MOV.L       @R2,R14    ; (part of)zbuf[].a
    00000374 5621                   MOV.L       @(4,R2),R6 ; (part of)zbuf[].a
    00000376 2FE2                   MOV.L       R14,@R15
    00000378 1F61                   MOV.L       R6,@(4,R15)
    0000037A 5E22                   MOV.L       @(8,R2),R14; (part of)zbuf[].a
    0000037C E60C                   MOV         #12,R6     ; H'0000000C
    0000037E 4618                   SHLL8       R6
    00000380 1FE2                   MOV.L       R14,@(8,R15)
    00000382 7668                   ADD         #104,R6
    00000384 6EF3                   MOV         R15,R14
    00000386 3E6C                   ADD         R6,R14
    00000388 2FE6                   MOV.L       R14,@-R15
    0000038A DE68                   MOV.L       L187+34,R14; _subvv
    0000038C 4E0B                   JSR         @R14
    0000038E 0009                   NOP
            graphic.c        110    
            graphic.c        111                  if(rel.a.z < float2f(.5f) || rel.b.z < float2f(.5f) || rel.c.z < float2f(.5f) ||                                        // near-plane culling
    00000390 3BA3                   CMP/GE      R10,R11
    00000392 8F5E                   BF/S        L45
    00000394 7F1C                   ADD         #28,R15
    00000396 39A3                   CMP/GE      R10,R9
    00000398 8B5B                   BF          L45
    0000039A E00C                   MOV         #12,R0     ; H'0000000C
    0000039C 4018                   SHLL8       R0
    0000039E 7038                   ADD         #56,R0
    000003A0 01FE                   MOV.L       @(R0,R15),R1; rel.c.z
    000003A2 31A3                   CMP/GE      R10,R1
    000003A4 8B55                   BF          L45
    000003A6 7FF0                   ADD         #-16,R15
    000003A8 E00C                   MOV         #12,R0     ; H'0000000C
    000003AA 4018                   SHLL8       R0
    000003AC 7060                   ADD         #96,R0
    000003AE 01FE                   MOV.L       @(R0,R15),R1; ctot.x
    000003B0 70F4                   ADD         #-12,R0
    000003B2 05FE                   MOV.L       @(R0,R15),R5; nrm.x
    000003B4 351D                   DMULS.L     R1,R5
    000003B6 65F3                   MOV         R15,R5
    000003B8 7508                   ADD         #8,R5
    000003BA 040A                   STS         MACH,R4
    000003BC 071A                   STS         MACL,R7
    000003BE 2F42                   MOV.L       R4,@R15
    000003C0 1F71                   MOV.L       R7,@(4,R15)
    000003C2 2F56                   MOV.L       R5,@-R15
    000003C4 D25A                   MOV.L       L187+38,R2 ; __shard64
    000003C6 A001                   BRA         L185
    000003C8 E10A                   MOV         #10,R1     ; H'0000000A
    000003CA              L186:
    000003CA F3A4                   .DATA.W     H'F3A4
    000003CC              L185:
    000003CC 420B                   JSR         @R2
    000003CE 0009                   NOP
    000003D0 7F0C                   ADD         #12,R15
    000003D2 67F6                   MOV.L       @R15+,R7
    000003D4 64F6                   MOV.L       @R15+,R4
    000003D6 7FF0                   ADD         #-16,R15
    000003D8 7010                   ADD         #16,R0
    000003DA 09FE                   MOV.L       @(R0,R15),R9; ctot.y
    000003DC 70F4                   ADD         #-12,R0
    000003DE 07FE                   MOV.L       @(R0,R15),R7; nrm.y
    000003E0 379D                   DMULS.L     R9,R7
    000003E2 0B1A                   STS         MACL,R11
    000003E4 1FB1                   MOV.L       R11,@(4,R15)
    000003E6 6BF3                   MOV         R15,R11
    000003E8 090A                   STS         MACH,R9
    000003EA 7B08                   ADD         #8,R11
    000003EC 2F92                   MOV.L       R9,@R15
    000003EE 2FB6                   MOV.L       R11,@-R15
    000003F0 420B                   JSR         @R2
    000003F2 E10A                   MOV         #10,R1     ; H'0000000A
    000003F4 7F0C                   ADD         #12,R15
    000003F6 6EF6                   MOV.L       @R15+,R14
    000003F8 6EF6                   MOV.L       @R15+,R14
    000003FA 34EC                   ADD         R14,R4
    000003FC 7FF0                   ADD         #-16,R15
    000003FE 7010                   ADD         #16,R0
    00000400 07FE                   MOV.L       @(R0,R15),R7; ctot.z
    00000402 70F4                   ADD         #-12,R0
    00000404 0EFE                   MOV.L       @(R0,R15),R14; nrm.z
    00000406 6BF3                   MOV         R15,R11
    00000408 3E7D                   DMULS.L     R7,R14
    0000040A 7B08                   ADD         #8,R11
    0000040C 090A                   STS         MACH,R9
    0000040E 061A                   STS         MACL,R6
    00000410 2F92                   MOV.L       R9,@R15
    00000412 1F61                   MOV.L       R6,@(4,R15)
    00000414 2FB6                   MOV.L       R11,@-R15
    00000416 420B                   JSR         @R2
    00000418 E10A                   MOV         #10,R1     ; H'0000000A
    0000041A 7F0C                   ADD         #12,R15
    0000041C 62F6                   MOV.L       @R15+,R2
    0000041E 62F6                   MOV.L       @R15+,R2
    00000420 342C                   ADD         R2,R4
    00000422 4411                   CMP/PZ      R4
    00000424 8915                   BT          L45
            graphic.c        112                     dotp(ctot, nrm) >= 0) {                                                                                                                                                      // backface culling
            graphic.c        113                          distances[i] = int2f(-1);                                                                                                                                               // culled
            graphic.c        114                          continue;
            graphic.c        115                  }
            graphic.c        116                  distances[i] = magnitude(ctr);
    00000426 7FF4                   ADD         #-12,R15
    00000428 E10C                   MOV         #12,R1     ; H'0000000C
    0000042A 4118                   SHLL8       R1
    0000042C 7118                   ADD         #24,R1
    0000042E 6BF3                   MOV         R15,R11
    00000430 3B1C                   ADD         R1,R11
    00000432 64B2                   MOV.L       @R11,R4    ; (part of)ctr
    00000434 51B1                   MOV.L       @(4,R11),R1; (part of)ctr
    00000436 57B2                   MOV.L       @(8,R11),R7; (part of)ctr
    00000438 D93E                   MOV.L       L187+42,R9 ; _magnitude
    0000043A 2F42                   MOV.L       R4,@R15
    0000043C 1F11                   MOV.L       R1,@(4,R15)
    0000043E 490B                   JSR         @R9
    00000440 1F72                   MOV.L       R7,@(8,R15)
    00000442 6203                   MOV         R0,R2
    00000444 7F0C                   ADD         #12,R15
    00000446 6EF3                   MOV         R15,R14
    00000448 60D3                   MOV         R13,R0
    0000044A 7E0C                   ADD         #12,R14
    0000044C 4008                   SHLL2       R0
    0000044E A007                   BRA         L49
    00000450 0E26                   MOV.L       R2,@(R0,R14); distances[]
    00000452              L45:
    00000452 66F3                   MOV         R15,R6
    00000454 60D3                   MOV         R13,R0
    00000456 EEFC                   MOV         #-4,R14    ; H'FFFFFFFC
    00000458 760C                   ADD         #12,R6
    0000045A 4008                   SHLL2       R0
    0000045C 4E18                   SHLL8       R14
    0000045E 06E6                   MOV.L       R14,@(R0,R6); distances[]
    00000460              L49:
    00000460 D42B                   MOV.L       L187+6,R4  ; _zbuf_idx
    00000462 7D01                   ADD         #1,R13
    00000464 6641                   MOV.W       @R4,R6     ; zbuf_idx
    00000466 626D                   EXTU.W      R6,R2
    00000468 3D23                   CMP/GE      R2,R13
    0000046A 8901                   BT          L209
    0000046C AF08                   BRA         L43
    0000046E 0009                   NOP
    00000470              L209:
    00000470              L42:
            graphic.c        117          }
            graphic.c        118          zindex_max = 0;
            graphic.c        119          for (i = 0; i < zbuf_idx; i++) {
    00000470 4215                   CMP/PL      R2
    00000472 D831                   MOV.L       L187+46,R8 ; _zindex_max
    00000474 EC00                   MOV         #0,R12     ; H'00000000
    00000476 8F3B                   BF/S        L51
    00000478 28C1                   MOV.W       R12,@R8    ; zindex_max
    0000047A 6BF3                   MOV         R15,R11
    0000047C EE00                   MOV         #0,R14     ; H'00000000
    0000047E 7B0C                   ADD         #12,R11
    00000480 6DB3                   MOV         R11,R13
    00000482 6AE3                   MOV         R14,R10
    00000484 E9FF                   MOV         #-1,R9     ; H'FFFFFFFF
    00000486              L52:
            graphic.c        120                  if (distances[i] < 0) {
    00000486 67D2                   MOV.L       @R13,R7    ; distances[]
    00000488 D123                   MOV.L       L187+14,R1 ; _zbuf
    0000048A 4711                   CMP/PZ      R7
    0000048C 6612                   MOV.L       @R1,R6     ; zbuf
    0000048E 60E3                   MOV         R14,R0
    00000490 8D05                   BT/S        L54
    00000492 7626                   ADD         #38,R6
    00000494 D21E                   MOV.L       L187+6,R2  ; _zbuf_idx
            graphic.c        121                          zbuf[i].zindex = -1;
    00000496 0695                   MOV.W       R9,@(R0,R6); zbuf[].zindex
    00000498 6521                   MOV.W       @R2,R5     ; zbuf_idx
    0000049A A024                   BRA         L55
    0000049C 615D                   EXTU.W      R5,R1
    0000049E              L54:
            graphic.c        122                          continue;
            graphic.c        123                  }
            graphic.c        124                  zbuf[i].zindex = 0;
            graphic.c        125                  // compare with every other triangle
            graphic.c        126                  for (j = 0; j < zbuf_idx; j++) {
    0000049E D21C                   MOV.L       L187+6,R2  ; _zbuf_idx
    000004A0 06A5                   MOV.W       R10,@(R0,R6); zbuf[].zindex
    000004A2 6521                   MOV.W       @R2,R5     ; zbuf_idx
    000004A4 615D                   EXTU.W      R5,R1
    000004A6 4115                   CMP/PL      R1
    000004A8 8F14                   BF/S        L57
    000004AA E400                   MOV         #0,R4      ; H'00000000
    000004AC 65B3                   MOV         R11,R5
    000004AE              L58:
            graphic.c        127                          if (distances[j] >= 0 && distances[i] > distances[j]) {
    000004AE 6252                   MOV.L       @R5,R2     ; distances[]
    000004B0 4211                   CMP/PZ      R2
    000004B2 8B0B                   BF          L60
    000004B4 3727                   CMP/GT      R2,R7
    000004B6 8B09                   BF          L60
            graphic.c        128                                  zbuf[i].zindex++;
    000004B8 D117                   MOV.L       L187+14,R1 ; _zbuf
    000004BA E026                   MOV         #38,R0     ; H'00000026
    000004BC 6612                   MOV.L       @R1,R6     ; zbuf
    000004BE 36EC                   ADD         R14,R6
    000004C0 026D                   MOV.W       @(R0,R6),R2; zbuf[].zindex
    000004C2 7201                   ADD         #1,R2
    000004C4 0625                   MOV.W       R2,@(R0,R6); zbuf[].zindex
    000004C6 D212                   MOV.L       L187+6,R2  ; _zbuf_idx
    000004C8 6621                   MOV.W       @R2,R6     ; zbuf_idx
    000004CA 616D                   EXTU.W      R6,R1
    000004CC              L60:
    000004CC 7401                   ADD         #1,R4
    000004CE 3413                   CMP/GE      R1,R4
    000004D0 8FED                   BF/S        L58
    000004D2 7504                   ADD         #4,R5
    000004D4              L57:
            graphic.c        129                          }
            graphic.c        130                  }
            graphic.c        131                  // find current largest zindex
            graphic.c        132                  if (zbuf[i].zindex > zindex_max) {
    000004D4 D710                   MOV.L       L187+14,R7 ; _zbuf
    000004D6 60E3                   MOV         R14,R0
    000004D8 6672                   MOV.L       @R7,R6     ; zbuf
    000004DA 6281                   MOV.W       @R8,R2     ; zindex_max
    000004DC 7626                   ADD         #38,R6
    000004DE 066D                   MOV.W       @(R0,R6),R6; zbuf[].zindex
    000004E0 3627                   CMP/GT      R2,R6
    000004E2 8B00                   BF          L55
            graphic.c        133                          zindex_max = zbuf[i].zindex;
    000004E4 2861                   MOV.W       R6,@R8     ; zindex_max
    000004E6              L55:
    000004E6 7C01                   ADD         #1,R12
    000004E8 3C13                   CMP/GE      R1,R12
    000004EA 7D04                   ADD         #4,R13
    000004EC 8FCB                   BF/S        L52
    000004EE 7E2C                   ADD         #44,R14
    000004F0              L51:
    000004F0 930B                   MOV.W       L187,R3    ; H'0C5C
    000004F2 3F3C                   ADD         R3,R15
    000004F4 4F06                   LDS.L       @R15+,MACH
    000004F6 4F16                   LDS.L       @R15+,MACL
    000004F8 4F26                   LDS.L       @R15+,PR
    000004FA 6EF6                   MOV.L       @R15+,R14
    000004FC 6DF6                   MOV.L       @R15+,R13
    000004FE 6CF6                   MOV.L       @R15+,R12
    00000500 6BF6                   MOV.L       @R15+,R11
    00000502 6AF6                   MOV.L       @R15+,R10
    00000504 69F6                   MOV.L       @R15+,R9
            graphic.c        134                  }
            graphic.c        135          }
            graphic.c        136    }
    00000506 000B                   RTS
    00000508 68F6                   MOV.L       @R15+,R8
    0000050A              L187:
    0000050A 0C5C                   .DATA.W     H'0C5C
    0000050C <00000000>             .DATA.L     _ivec3f
    00000510 <00000000>             .DATA.L     _zbuf_idx
    00000514 <00000000>             .DATA.L     _o
    00000518 <00000000>             .DATA.L     _zbuf
    0000051C <00000000>             .DATA.L     _y
    00000520 <00000000>             .DATA.L     _p
    00000524 <00000000>             .DATA.L     _move
    00000528 <00000000>             .DATA.L     _normal
    0000052C <00000000>             .DATA.L     _subvv
    00000530 <00000000>             .DATA.L     __shard64
    00000534 <00000000>             .DATA.L     _magnitude
    00000538 <00000000>             .DATA.L     _zindex_max
            graphic.c        137    
            graphic.c        138    
            graphic.c        139    #define max(a, b) (((a)>(b))?(a):(b))
            graphic.c        140    #define min(a, b) (((a)<(b))?(a):(b))
            graphic.c        141    
            graphic.c        142    unsigned int g_draw(void) {
    0000053C              _g_draw:                         ; function: g_draw
                                                           ; frame size=456
    0000053C 2F86                   MOV.L       R8,@-R15
    0000053E 2F96                   MOV.L       R9,@-R15
    00000540 2FA6                   MOV.L       R10,@-R15
    00000542 2FB6                   MOV.L       R11,@-R15
    00000544 2FC6                   MOV.L       R12,@-R15
    00000546 2FD6                   MOV.L       R13,@-R15
    00000548 2FE6                   MOV.L       R14,@-R15
    0000054A 4F22                   STS.L       PR,@-R15
    0000054C 4F12                   STS.L       MACL,@-R15
    0000054E 4F02                   STS.L       MACH,@-R15
    00000550 93E1                   MOV.W       L189,R3    ; H'FE9C
    00000552 3F3C                   ADD         R3,R15
    00000554 E0D0                   MOV         #-48,R0    ; H'FFFFFFD0
            graphic.c        143          int curr_zidx, curr_tridx, xiter, yiter;
            graphic.c        144          int minxa, maxxa;
            graphic.c        145          int minxd, maxxd;
            graphic.c        146          int maxx, minx;
            graphic.c        147          int box[4];
            graphic.c        148          int q_cnt = 0, px_cnt = 0;
    00000556 EE00                   MOV         #0,R14     ; H'00000000
    00000558 600C                   EXTU.B      R0,R0
            graphic.c        149          int found;
            graphic.c        150          fixed diff;
            graphic.c        151          int maxmax = 0, maxmax2 = 0;
            graphic.c        152    
            graphic.c        153          trianglef t;
            graphic.c        154          unsigned char clr;
            graphic.c        155          vec3f v0, v1, v2, a, b, c, d;
            graphic.c        156          fixed denom, dot00, dot01, dot02, dot11, dot12, u, v, ui, vi;
            graphic.c        157          fixed ozstep, uzstep, vzstep;
            graphic.c        158          fixed ozp, uzp, vzp, ozq, uzq, vzq, oza, uza, vza, ozb, uzb, vzb, ozc, uzc, vzc, ozi, uzi, vzi, zci;
            graphic.c        159          fixed ut, vt;
            graphic.c        160          fixed ma, mb, v0x_sc, v1x_sc, udmax = 0;
            graphic.c        161          fixed za, zb, zc;
            graphic.c        162    
            graphic.c        163          // avoid race conditions
            graphic.c        164          //if (lock) return;
            graphic.c        165          //lock = 1;
            graphic.c        166    
            graphic.c        167          // do Z-sorting
            graphic.c        168        g_sort();
    0000055A BE71                   BSR         _g_sort
    0000055C 0FE6                   MOV.L       R14,@(R0,R15); q_cnt
            graphic.c        169    
            graphic.c        170    #ifdef SINE_TEST
            graphic.c        171          for (za = -float2f(6.282f), found = 0; found < 128; za += divfi(float2f(6.282f), 128), found++) {
            graphic.c        172                  Bdisp_SetPoint_VRAM(found, (f2int(mulfi(cos_f(za), 24))+32), 1);
            graphic.c        173                  Bdisp_SetPoint_VRAM(found, (((int)(cos(f2float(za))*24.f))+32), 1);
            graphic.c        174                  Bdisp_PutDisp_DD();
            graphic.c        175          } 
            graphic.c        176    
            graphic.c        177          return 1;
            graphic.c        178    #endif
            graphic.c        179    
            graphic.c        180          // iterate on every triangle of every distinct z index
            graphic.c        181          for (curr_zidx = zindex_max; curr_zidx >= 0; curr_zidx--) {
    0000055E D6D1                   MOV.L       L191,R6    ; _zindex_max
    00000560 E0D4                   MOV         #-44,R0    ; H'FFFFFFD4
    00000562 6261                   MOV.W       @R6,R2     ; zindex_max
    00000564 600C                   EXTU.B      R0,R0
    00000566 4211                   CMP/PZ      R2
    00000568 8D03                   BT/S        L210
    0000056A 0F26                   MOV.L       R2,@(R0,R15); curr_zidx
    0000056C D3CE                   MOV.L       L191+4,R3  ; L65
    0000056E 432B                   JMP         @R3
    00000570 0009                   NOP
    00000572              L210:
    00000572 DECE                   MOV.L       L191+8,R14 ; _zbuf_idx
    00000574 ED01                   MOV         #1,R13     ; H'00000001
    00000576 66E1                   MOV.W       @R14,R6    ; zbuf_idx
    00000578 4D28                   SHLL16      R13
    0000057A 626D                   EXTU.W      R6,R2
    0000057C              L66:
            graphic.c        182                  for (curr_tridx = 0; curr_tridx < zbuf_idx; curr_tridx++) {
    0000057C 4215                   CMP/PL      R2
    0000057E E0D8                   MOV         #-40,R0    ; H'FFFFFFD8
    00000580 E600                   MOV         #0,R6      ; H'00000000
    00000582 600C                   EXTU.B      R0,R0
    00000584 8D03                   BT/S        L211
    00000586 0F66                   MOV.L       R6,@(R0,R15); curr_tridx
    00000588 D3C9                   MOV.L       L191+12,R3 ; L67
    0000058A 432B                   JMP         @R3
    0000058C 0009                   NOP
    0000058E              L211:
    0000058E              L68:
            graphic.c        183                          if (zbuf[curr_tridx].zindex != curr_zidx) continue;     // filter triangles so that only triangles with the current z index are drawn in this round
    0000058E E3D4                   MOV         #-44,R3    ; H'FFFFFFD4
    00000590 633C                   EXTU.B      R3,R3
    00000592 33FC                   ADD         R15,R3
    00000594 5131                   MOV.L       @(4,R3),R1 ; curr_tridx
    00000596 E52C                   MOV         #44,R5     ; H'0000002C
    00000598 0517                   MUL.L       R1,R5
    0000059A E026                   MOV         #38,R0     ; H'00000026
    0000059C D1C5                   MOV.L       L191+16,R1 ; _zbuf
    0000059E 041A                   STS         MACL,R4
    000005A0 6612                   MOV.L       @R1,R6     ; zbuf
    000005A2 6732                   MOV.L       @R3,R7     ; curr_zidx
    000005A4 346C                   ADD         R6,R4
    000005A6 1342                   MOV.L       R4,@(8,R3)
    000005A8 044D                   MOV.W       @(R0,R4),R4; zbuf[].zindex
    000005AA 3470                   CMP/EQ      R7,R4
    000005AC 8902                   BT          L212
    000005AE D3C2                   MOV.L       L191+20,R3 ; L69
    000005B0 432B                   JMP         @R3
    000005B2 0009                   NOP
    000005B4              L212:
            graphic.c        184    
            graphic.c        185                          t = move(zbuf[curr_tridx], o, p, y); // transform to camera     
    000005B4 7FF4                   ADD         #-12,R15
    000005B6 DCC1                   MOV.L       L191+24,R12; _o
    000005B8 6EC2                   MOV.L       @R12,R14   ; (part of)o
    000005BA 5AC1                   MOV.L       @(4,R12),R10; (part of)o
    000005BC 5BC2                   MOV.L       @(8,R12),R11; (part of)o
    000005BE 2FE2                   MOV.L       R14,@R15
    000005C0 1FA1                   MOV.L       R10,@(4,R15)
    000005C2 1FB2                   MOV.L       R11,@(8,R15)
    000005C4 7FD4                   ADD         #-44,R15
    000005C6 E045                   MOV         #69,R0     ; H'00000045
    000005C8 4008                   SHLL2       R0
    000005CA 0BFE                   MOV.L       @(R0,R15),R11
    000005CC 69F3                   MOV         R15,R9
    000005CE 51B1                   MOV.L       @(4,R11),R1; (part of)zbuf[]
    000005D0 55B4                   MOV.L       @(16,R11),R5; (part of)zbuf[]
    000005D2 57B6                   MOV.L       @(24,R11),R7; (part of)zbuf[]
    000005D4 6CB2                   MOV.L       @R11,R12   ; (part of)zbuf[]
    000005D6 1F11                   MOV.L       R1,@(4,R15)
    000005D8 52B2                   MOV.L       @(8,R11),R2; (part of)zbuf[]
    000005DA 51B3                   MOV.L       @(12,R11),R1; (part of)zbuf[]
    000005DC 54B5                   MOV.L       @(20,R11),R4; (part of)zbuf[]
    000005DE 1F54                   MOV.L       R5,@(16,R15)
    000005E0 55B7                   MOV.L       @(28,R11),R5; (part of)zbuf[]
    000005E2 1F76                   MOV.L       R7,@(24,R15)
    000005E4 5AB8                   MOV.L       @(32,R11),R10; (part of)zbuf[]
    000005E6 57B9                   MOV.L       @(36,R11),R7; (part of)zbuf[]
    000005E8 58BA                   MOV.L       @(40,R11),R8; (part of)zbuf[]
    000005EA 7938                   ADD         #56,R9
    000005EC 2FC2                   MOV.L       R12,@R15
    000005EE 1F22                   MOV.L       R2,@(8,R15)
    000005F0 1F13                   MOV.L       R1,@(12,R15)
    000005F2 1F45                   MOV.L       R4,@(20,R15)
    000005F4 1F57                   MOV.L       R5,@(28,R15)
    000005F6 1FA8                   MOV.L       R10,@(32,R15)
    000005F8 1F79                   MOV.L       R7,@(36,R15)
    000005FA 1F8A                   MOV.L       R8,@(40,R15)
    000005FC 2F96                   MOV.L       R9,@-R15
    000005FE D8B0                   MOV.L       L191+28,R8 ; _y
    00000600 D9B0                   MOV.L       L191+32,R9 ; _p
    00000602 D2B1                   MOV.L       L191+36,R2 ; _move
    00000604 6582                   MOV.L       @R8,R5     ; y
    00000606 420B                   JSR         @R2
    00000608 6492                   MOV.L       @R9,R4     ; p
    0000060A 7F3C                   ADD         #60,R15
            graphic.c        186                          clr = (t.color < TX_CNT) ? t.color : TX_CHECKERBOARDA; //sanity check
    0000060C E024                   MOV         #36,R0     ; H'00000024
    0000060E 06FC                   MOV.B       @(R0,R15),R6; t.color
    00000610 EE07                   MOV         #7,R14     ; H'00000007
    00000612 36E2                   CMP/HS      R14,R6
    00000614 8B00                   BF          L72
    00000616 E603                   MOV         #3,R6      ; H'00000003
    00000618              L72:
            graphic.c        187                  
            graphic.c        188                          // map to on-screen '2d' coordinates
            graphic.c        189                          a = ivec3f(divff(mulff(t.a.x, int2f(64)), -t.a.z) + int2f(64),
            graphic.c        190                           divff(mulff(t.a.y, int2f(64)), -t.a.z) + int2f(32),
            graphic.c        191                           0);    
    00000618 59F2                   MOV.L       @(8,R15),R9; t.a.z
    0000061A E0E0                   MOV         #-32,R0    ; H'FFFFFFE0
    0000061C 6C9B                   NEG         R9,R12
    0000061E 62C3                   MOV         R12,R2
    00000620 600C                   EXTU.B      R0,R0
    00000622 4200                   SHLL        R2
    00000624 0F64                   MOV.B       R6,@(R0,R15); clr
    00000626 322A                   SUBC        R2,R2
    00000628 1F2B                   MOV.L       R2,@(44,R15)
    0000062A 1FCC                   MOV.L       R12,@(48,R15)
    0000062C 7FF8                   ADD         #-8,R15
    0000062E 64F3                   MOV         R15,R4
    00000630 7434                   ADD         #52,R4
    00000632 5C41                   MOV.L       @(4,R4),R12
    00000634 6E42                   MOV.L       @R4,R14
    00000636 2FC6                   MOV.L       R12,@-R15
    00000638 2FE6                   MOV.L       R14,@-R15
    0000063A 7FE0                   ADD         #-32,R15
    0000063C 5EFD                   MOV.L       @(52,R15),R14; t.a.y
    0000063E 64F3                   MOV         R15,R4
    00000640 3DED                   DMULS.L     R14,R13
    00000642 7408                   ADD         #8,R4
    00000644 020A                   STS         MACH,R2
    00000646 011A                   STS         MACL,R1
    00000648 2F22                   MOV.L       R2,@R15
    0000064A 1F11                   MOV.L       R1,@(4,R15)
    0000064C 2F46                   MOV.L       R4,@-R15
    0000064E DC9F                   MOV.L       L191+40,R12; __shard64
    00000650 4C0B                   JSR         @R12
    00000652 E10A                   MOV         #10,R1     ; H'0000000A
    00000654 7F0C                   ADD         #12,R15
    00000656 62F6                   MOV.L       @R15+,R2
    00000658 64F6                   MOV.L       @R15+,R4
    0000065A 6243                   MOV         R4,R2
    0000065C 4200                   SHLL        R2
    0000065E 322A                   SUBC        R2,R2
    00000660 65F3                   MOV         R15,R5
    00000662 7508                   ADD         #8,R5
    00000664 2F22                   MOV.L       R2,@R15
    00000666 1F41                   MOV.L       R4,@(4,R15)
    00000668 2F56                   MOV.L       R5,@-R15
    0000066A D699                   MOV.L       L191+44,R6 ; __shlld64
    0000066C 460B                   JSR         @R6
    0000066E E10A                   MOV         #10,R1     ; H'0000000A
    00000670 7F0C                   ADD         #12,R15
    00000672 67F3                   MOV         R15,R7
    00000674 7710                   ADD         #16,R7
    00000676 D897                   MOV.L       L191+48,R8 ; __div64s
    00000678 480B                   JSR         @R8
    0000067A 2F76                   MOV.L       R7,@-R15
    0000067C 7F14                   ADD         #20,R15
    0000067E 6AF6                   MOV.L       @R15+,R10
    00000680 65F6                   MOV.L       @R15+,R5
    00000682 DA95                   MOV.L       L191+52,R10; H'00008000
    00000684 35AC                   ADD         R10,R5
    00000686 7FF8                   ADD         #-8,R15
    00000688 6AF3                   MOV         R15,R10
    0000068A 7A34                   ADD         #52,R10
    0000068C 5BA1                   MOV.L       @(4,R10),R11
    0000068E 67A2                   MOV.L       @R10,R7
    00000690 2FB6                   MOV.L       R11,@-R15
    00000692 2F76                   MOV.L       R7,@-R15
    00000694 7FE0                   ADD         #-32,R15
    00000696 5EFC                   MOV.L       @(48,R15),R14; t.a.x
    00000698 64F3                   MOV         R15,R4
    0000069A 3DED                   DMULS.L     R14,R13
    0000069C 7408                   ADD         #8,R4
    0000069E 0A0A                   STS         MACH,R10
    000006A0 011A                   STS         MACL,R1
    000006A2 2FA2                   MOV.L       R10,@R15
    000006A4 1F11                   MOV.L       R1,@(4,R15)
    000006A6 2F46                   MOV.L       R4,@-R15
    000006A8 4C0B                   JSR         @R12
    000006AA E10A                   MOV         #10,R1     ; H'0000000A
    000006AC 7F0C                   ADD         #12,R15
    000006AE 62F6                   MOV.L       @R15+,R2
    000006B0 6BF6                   MOV.L       @R15+,R11
    000006B2 62B3                   MOV         R11,R2
    000006B4 4200                   SHLL        R2
    000006B6 322A                   SUBC        R2,R2
    000006B8 66F3                   MOV         R15,R6
    000006BA 7608                   ADD         #8,R6
    000006BC 2F22                   MOV.L       R2,@R15
    000006BE 1FB1                   MOV.L       R11,@(4,R15)
    000006C0 2F66                   MOV.L       R6,@-R15
    000006C2 D783                   MOV.L       L191+44,R7 ; __shlld64
    000006C4 470B                   JSR         @R7
    000006C6 E10A                   MOV         #10,R1     ; H'0000000A
    000006C8 7F0C                   ADD         #12,R15
    000006CA 6AF3                   MOV         R15,R10
    000006CC 7A10                   ADD         #16,R10
    000006CE 480B                   JSR         @R8
    000006D0 2FA6                   MOV.L       R10,@-R15
    000006D2 7F14                   ADD         #20,R15
    000006D4 6BF6                   MOV.L       @R15+,R11
    000006D6 64F6                   MOV.L       @R15+,R4
    000006D8 6BF3                   MOV         R15,R11
    000006DA 7B34                   ADD         #52,R11
    000006DC 34DC                   ADD         R13,R4
    000006DE 2FB6                   MOV.L       R11,@-R15
    000006E0 DE7E                   MOV.L       L191+56,R14; _ivec3f
    000006E2 4E0B                   JSR         @R14
    000006E4 E600                   MOV         #0,R6      ; H'00000000
    000006E6 7F04                   ADD         #4,R15
            graphic.c        192                          b = ivec3f(divff(mulff(t.b.x, int2f(64)), -t.b.z) + int2f(64),
            graphic.c        193                           divff(mulff(t.b.y, int2f(64)), -t.b.z) + int2f(32),
            graphic.c        194                           0);    
    000006E8 5AF5                   MOV.L       @(20,R15),R10; t.b.z
    000006EA 6EAB                   NEG         R10,R14
    000006EC 62E3                   MOV         R14,R2
    000006EE 4200                   SHLL        R2
    000006F0 322A                   SUBC        R2,R2
    000006F2 67F3                   MOV         R15,R7
    000006F4 7740                   ADD         #64,R7
    000006F6 2722                   MOV.L       R2,@R7
    000006F8 17E1                   MOV.L       R14,@(4,R7)
    000006FA 7FF8                   ADD         #-8,R15
    000006FC 6BF3                   MOV         R15,R11
    000006FE 7B48                   ADD         #72,R11
    00000700 51B1                   MOV.L       @(4,R11),R1
    00000702 62B2                   MOV.L       @R11,R2
    00000704 2F16                   MOV.L       R1,@-R15
    00000706 2F26                   MOV.L       R2,@-R15
    00000708 7FE0                   ADD         #-32,R15
    0000070A E040                   MOV         #64,R0     ; H'00000040
    0000070C 04FE                   MOV.L       @(R0,R15),R4; t.b.y
    0000070E 66F3                   MOV         R15,R6
    00000710 3D4D                   DMULS.L     R4,R13
    00000712 A001                   BRA         L188
    00000714 7608                   ADD         #8,R6
    00000716              L189:
    00000716 FE9C                   .DATA.W     H'FE9C
    00000718              L188:
    00000718 040A                   STS         MACH,R4
    0000071A 051A                   STS         MACL,R5
    0000071C 2F42                   MOV.L       R4,@R15
    0000071E 1F51                   MOV.L       R5,@(4,R15)
    00000720 2F66                   MOV.L       R6,@-R15
    00000722 4C0B                   JSR         @R12
    00000724 E10A                   MOV         #10,R1     ; H'0000000A
    00000726 7F0C                   ADD         #12,R15
    00000728 62F6                   MOV.L       @R15+,R2
    0000072A 65F6                   MOV.L       @R15+,R5
    0000072C 6253                   MOV         R5,R2
    0000072E 4200                   SHLL        R2
    00000730 322A                   SUBC        R2,R2
    00000732 67F3                   MOV         R15,R7
    00000734 7708                   ADD         #8,R7
    00000736 2F22                   MOV.L       R2,@R15
    00000738 1F51                   MOV.L       R5,@(4,R15)
    0000073A 2F76                   MOV.L       R7,@-R15
    0000073C DB64                   MOV.L       L191+44,R11; __shlld64
    0000073E 4B0B                   JSR         @R11
    00000740 E10A                   MOV         #10,R1     ; H'0000000A
    00000742 7F0C                   ADD         #12,R15
    00000744 6EF3                   MOV         R15,R14
    00000746 7E10                   ADD         #16,R14
    00000748 480B                   JSR         @R8
    0000074A 2FE6                   MOV.L       R14,@-R15
    0000074C 7F14                   ADD         #20,R15
    0000074E 61F6                   MOV.L       @R15+,R1
    00000750 65F6                   MOV.L       @R15+,R5
    00000752 D161                   MOV.L       L191+52,R1 ; H'00008000
    00000754 351C                   ADD         R1,R5
    00000756 7FF8                   ADD         #-8,R15
    00000758 6BF3                   MOV         R15,R11
    0000075A 7B48                   ADD         #72,R11
    0000075C 57B1                   MOV.L       @(4,R11),R7
    0000075E 6EB2                   MOV.L       @R11,R14
    00000760 2F76                   MOV.L       R7,@-R15
    00000762 2FE6                   MOV.L       R14,@-R15
    00000764 7FE0                   ADD         #-32,R15
    00000766 5BFF                   MOV.L       @(60,R15),R11; t.b.x
    00000768 61F3                   MOV         R15,R1
    0000076A 3DBD                   DMULS.L     R11,R13
    0000076C 7108                   ADD         #8,R1
    0000076E 0E0A                   STS         MACH,R14
    00000770 041A                   STS         MACL,R4
    00000772 2FE2                   MOV.L       R14,@R15
    00000774 1F41                   MOV.L       R4,@(4,R15)
    00000776 2F16                   MOV.L       R1,@-R15
    00000778 4C0B                   JSR         @R12
    0000077A E10A                   MOV         #10,R1     ; H'0000000A
    0000077C 7F0C                   ADD         #12,R15
    0000077E 62F6                   MOV.L       @R15+,R2
    00000780 67F6                   MOV.L       @R15+,R7
    00000782 6273                   MOV         R7,R2
    00000784 4200                   SHLL        R2
    00000786 322A                   SUBC        R2,R2
    00000788 64F3                   MOV         R15,R4
    0000078A 7408                   ADD         #8,R4
    0000078C 2F22                   MOV.L       R2,@R15
    0000078E 1F71                   MOV.L       R7,@(4,R15)
    00000790 2F46                   MOV.L       R4,@-R15
    00000792 D64F                   MOV.L       L191+44,R6 ; __shlld64
    00000794 460B                   JSR         @R6
    00000796 E10A                   MOV         #10,R1     ; H'0000000A
    00000798 7F0C                   ADD         #12,R15
    0000079A 67F3                   MOV         R15,R7
    0000079C 7710                   ADD         #16,R7
    0000079E 480B                   JSR         @R8
    000007A0 2F76                   MOV.L       R7,@-R15
    000007A2 7F14                   ADD         #20,R15
    000007A4 6BF6                   MOV.L       @R15+,R11
    000007A6 64F6                   MOV.L       @R15+,R4
    000007A8 6BF3                   MOV         R15,R11
    000007AA 7B48                   ADD         #72,R11
    000007AC 34DC                   ADD         R13,R4
    000007AE 2FB6                   MOV.L       R11,@-R15
    000007B0 DE4A                   MOV.L       L191+56,R14; _ivec3f
    000007B2 4E0B                   JSR         @R14
    000007B4 E600                   MOV         #0,R6      ; H'00000000
    000007B6 7F04                   ADD         #4,R15
            graphic.c        195                          c = ivec3f(divff(mulff(t.c.x, int2f(64)), -t.c.z) + int2f(64),
            graphic.c        196                           divff(mulff(t.c.y, int2f(64)), -t.c.z) + int2f(32),
            graphic.c        197                           0);
    000007B8 5BF8                   MOV.L       @(32,R15),R11; t.c.z
    000007BA 6EBB                   NEG         R11,R14
    000007BC 62E3                   MOV         R14,R2
    000007BE 4200                   SHLL        R2
    000007C0 322A                   SUBC        R2,R2
    000007C2 65F3                   MOV         R15,R5
    000007C4 7554                   ADD         #84,R5
    000007C6 2522                   MOV.L       R2,@R5
    000007C8 15E1                   MOV.L       R14,@(4,R5)
    000007CA 7FF8                   ADD         #-8,R15
    000007CC E45C                   MOV         #92,R4     ; H'0000005C
    000007CE 61F3                   MOV         R15,R1
    000007D0 314C                   ADD         R4,R1
    000007D2 5711                   MOV.L       @(4,R1),R7
    000007D4 6512                   MOV.L       @R1,R5
    000007D6 2F76                   MOV.L       R7,@-R15
    000007D8 2F56                   MOV.L       R5,@-R15
    000007DA 7FE0                   ADD         #-32,R15
    000007DC E04C                   MOV         #76,R0     ; H'0000004C
    000007DE 04FE                   MOV.L       @(R0,R15),R4; t.c.y
    000007E0 66F3                   MOV         R15,R6
    000007E2 3D4D                   DMULS.L     R4,R13
    000007E4 7608                   ADD         #8,R6
    000007E6 050A                   STS         MACH,R5
    000007E8 0E1A                   STS         MACL,R14
    000007EA 2F52                   MOV.L       R5,@R15
    000007EC 1FE1                   MOV.L       R14,@(4,R15)
    000007EE 2F66                   MOV.L       R6,@-R15
    000007F0 4C0B                   JSR         @R12
    000007F2 E10A                   MOV         #10,R1     ; H'0000000A
    000007F4 7F0C                   ADD         #12,R15
    000007F6 62F6                   MOV.L       @R15+,R2
    000007F8 65F6                   MOV.L       @R15+,R5
    000007FA 6253                   MOV         R5,R2
    000007FC 4200                   SHLL        R2
    000007FE 322A                   SUBC        R2,R2
    00000800 67F3                   MOV         R15,R7
    00000802 7708                   ADD         #8,R7
    00000804 2F22                   MOV.L       R2,@R15
    00000806 1F51                   MOV.L       R5,@(4,R15)
    00000808 2F76                   MOV.L       R7,@-R15
    0000080A DE31                   MOV.L       L191+44,R14; __shlld64
    0000080C 4E0B                   JSR         @R14
    0000080E E10A                   MOV         #10,R1     ; H'0000000A
    00000810 7F0C                   ADD         #12,R15
    00000812 61F3                   MOV         R15,R1
    00000814 7110                   ADD         #16,R1
    00000816 480B                   JSR         @R8
    00000818 2F16                   MOV.L       R1,@-R15
    0000081A 7F14                   ADD         #20,R15
    0000081C 64F6                   MOV.L       @R15+,R4
    0000081E 65F6                   MOV.L       @R15+,R5
    00000820 D42D                   MOV.L       L191+52,R4 ; H'00008000
    00000822 354C                   ADD         R4,R5
    00000824 7FF8                   ADD         #-8,R15
    00000826 E65C                   MOV         #92,R6     ; H'0000005C
    00000828 67F3                   MOV         R15,R7
    0000082A 376C                   ADD         R6,R7
    0000082C 5671                   MOV.L       @(4,R7),R6
    0000082E 6E72                   MOV.L       @R7,R14
    00000830 2F66                   MOV.L       R6,@-R15
    00000832 2FE6                   MOV.L       R14,@-R15
    00000834 7FE0                   ADD         #-32,R15
    00000836 E048                   MOV         #72,R0     ; H'00000048
    00000838 0EFE                   MOV.L       @(R0,R15),R14; t.c.x
    0000083A 64F3                   MOV         R15,R4
    0000083C 3DED                   DMULS.L     R14,R13
    0000083E 7408                   ADD         #8,R4
    00000840 010A                   STS         MACH,R1
    00000842 061A                   STS         MACL,R6
    00000844 2F12                   MOV.L       R1,@R15
    00000846 1F61                   MOV.L       R6,@(4,R15)
    00000848 2F46                   MOV.L       R4,@-R15
    0000084A 4C0B                   JSR         @R12
    0000084C E10A                   MOV         #10,R1     ; H'0000000A
    0000084E 7F0C                   ADD         #12,R15
    00000850 62F6                   MOV.L       @R15+,R2
    00000852 6CF6                   MOV.L       @R15+,R12
    00000854 62C3                   MOV         R12,R2
    00000856 4200                   SHLL        R2
    00000858 322A                   SUBC        R2,R2
    0000085A 67F3                   MOV         R15,R7
    0000085C 7708                   ADD         #8,R7
    0000085E 2F22                   MOV.L       R2,@R15
    00000860 1FC1                   MOV.L       R12,@(4,R15)
    00000862 2F76                   MOV.L       R7,@-R15
    00000864 DC1A                   MOV.L       L191+44,R12; __shlld64
    00000866 4C0B                   JSR         @R12
    00000868 E10A                   MOV         #10,R1     ; H'0000000A
    0000086A 7F0C                   ADD         #12,R15
    0000086C 6EF3                   MOV         R15,R14
    0000086E 7E10                   ADD         #16,R14
    00000870 480B                   JSR         @R8
    00000872 2FE6                   MOV.L       R14,@-R15
    00000874 7F14                   ADD         #20,R15
    00000876 61F6                   MOV.L       @R15+,R1
    00000878 64F6                   MOV.L       @R15+,R4
    0000087A 61F3                   MOV         R15,R1
    0000087C 715C                   ADD         #92,R1
    0000087E 34DC                   ADD         R13,R4
    00000880 2F16                   MOV.L       R1,@-R15
    00000882 D716                   MOV.L       L191+56,R7 ; _ivec3f
    00000884 470B                   JSR         @R7
    00000886 E600                   MOV         #0,R6      ; H'00000000
    00000888 7F04                   ADD         #4,R15
            graphic.c        198    
            graphic.c        199                          // get bounding box
            graphic.c        200                          box[0] = f2int(min(min(a.x, b.x), c.x));
    0000088A E048                   MOV         #72,R0     ; H'00000048
    0000088C 05FE                   MOV.L       @(R0,R15),R5; b.x
    0000088E 5CFD                   MOV.L       @(52,R15),R12; a.x
    00000890 3C53                   CMP/GE      R5,R12
    00000892 8D01                   BT/S        L74
    00000894 6253                   MOV         R5,R2
    00000896 62C3                   MOV         R12,R2
    00000898              L74:
    00000898 E05C                   MOV         #92,R0     ; H'0000005C
    0000089A 0EFE                   MOV.L       @(R0,R15),R14; c.x
    0000089C 32E3                   CMP/GE      R14,R2
    0000089E 8924                   BT          L76
    000008A0 A01E                   BRA         L190
    000008A2 0009                   NOP
    000008A4              L191:
    000008A4 <00000000>             .DATA.L     _zindex_max
    000008A8 <00000000>             .DATA.L     L65
    000008AC <00000000>             .DATA.L     _zbuf_idx
    000008B0 <00000000>             .DATA.L     L67
    000008B4 <00000000>             .DATA.L     _zbuf
    000008B8 <00000000>             .DATA.L     L69
    000008BC <00000000>             .DATA.L     _o
    000008C0 <00000000>             .DATA.L     _y
    000008C4 <00000000>             .DATA.L     _p
    000008C8 <00000000>             .DATA.L     _move
    000008CC <00000000>             .DATA.L     __shard64
    000008D0 <00000000>             .DATA.L     __shlld64
    000008D4 <00000000>             .DATA.L     __div64s
    000008D8 00008000               .DATA.L     H'00008000
    000008DC <00000000>             .DATA.L     _ivec3f
    000008E0              L190:
    000008E0 3C53                   CMP/GE      R5,R12
    000008E2 8D03                   BT/S        L78
    000008E4 6253                   MOV         R5,R2
    000008E6 A001                   BRA         L78
    000008E8 62C3                   MOV         R12,R2
    000008EA              L76:
    000008EA 62E3                   MOV         R14,R2
    000008EC              L78:
    000008EC E1F6                   MOV         #-10,R1    ; H'FFFFFFF6
    000008EE 421C                   SHAD        R1,R2
    000008F0 E068                   MOV         #104,R0    ; H'00000068
    000008F2 0F26                   MOV.L       R2,@(R0,R15); box[]
            graphic.c        201                          box[1] = f2int(min(min(a.y, b.y), c.y));        
    000008F4 E04C                   MOV         #76,R0     ; H'0000004C
    000008F6 04FE                   MOV.L       @(R0,R15),R4; b.y
    000008F8 56FE                   MOV.L       @(56,R15),R6; a.y
    000008FA 3643                   CMP/GE      R4,R6
    000008FC 8D01                   BT/S        L80
    000008FE 6243                   MOV         R4,R2
    00000900 6263                   MOV         R6,R2
    00000902              L80:
    00000902 E060                   MOV         #96,R0     ; H'00000060
    00000904 01FE                   MOV.L       @(R0,R15),R1; c.y
    00000906 3213                   CMP/GE      R1,R2
    00000908 8904                   BT          L82
    0000090A 3643                   CMP/GE      R4,R6
    0000090C 8D03                   BT/S        L84
    0000090E 6243                   MOV         R4,R2
    00000910 A001                   BRA         L84
    00000912 6263                   MOV         R6,R2
    00000914              L82:
    00000914 6213                   MOV         R1,R2
    00000916              L84:
            graphic.c        202                          box[2] = f2int(max(max(a.x, b.x), c.x));
    00000916 3C57                   CMP/GT      R5,R12
    00000918 E7F6                   MOV         #-10,R7    ; H'FFFFFFF6
    0000091A 427C                   SHAD        R7,R2
    0000091C E06C                   MOV         #108,R0    ; H'0000006C
    0000091E 0F26                   MOV.L       R2,@(R0,R15); box[]
    00000920 8F01                   BF/S        L86
    00000922 6253                   MOV         R5,R2
    00000924 62C3                   MOV         R12,R2
    00000926              L86:
    00000926 32E7                   CMP/GT      R14,R2
    00000928 8B04                   BF          L88
    0000092A 3C57                   CMP/GT      R5,R12
    0000092C 8F03                   BF/S        L90
    0000092E 6253                   MOV         R5,R2
    00000930 A001                   BRA         L90
    00000932 62C3                   MOV         R12,R2
    00000934              L88:
    00000934 62E3                   MOV         R14,R2
    00000936              L90:
            graphic.c        203                          box[3] = f2int(max(max(a.y, b.y), c.y));
    00000936 3647                   CMP/GT      R4,R6
    00000938 E5F6                   MOV         #-10,R5    ; H'FFFFFFF6
    0000093A 425C                   SHAD        R5,R2
    0000093C E070                   MOV         #112,R0    ; H'00000070
    0000093E 0F26                   MOV.L       R2,@(R0,R15); box[]
    00000940 8F01                   BF/S        L92
    00000942 6243                   MOV         R4,R2
    00000944 6263                   MOV         R6,R2
    00000946              L92:
    00000946 3217                   CMP/GT      R1,R2
    00000948 8B06                   BF          L94
    0000094A 3647                   CMP/GT      R4,R6
    0000094C 8900                   BT          L96
    0000094E 6643                   MOV         R4,R6
    00000950              L96:
    00000950 E058                   MOV         #88,R0     ; H'00000058
    00000952 4008                   SHLL2       R0
    00000954 A003                   BRA         L97
    00000956 0F66                   MOV.L       R6,@(R0,R15)
    00000958              L94:
    00000958 E058                   MOV         #88,R0     ; H'00000058
    0000095A 4008                   SHLL2       R0
    0000095C 0F16                   MOV.L       R1,@(R0,R15)
    0000095E              L97:
    0000095E E058                   MOV         #88,R0     ; H'00000058
    00000960 4008                   SHLL2       R0
    00000962 04FE                   MOV.L       @(R0,R15),R4
    00000964 E2F6                   MOV         #-10,R2    ; H'FFFFFFF6
    00000966 442C                   SHAD        R2,R4
    00000968 0F46                   MOV.L       R4,@(R0,R15)
    0000096A E074                   MOV         #116,R0    ; H'00000074
    0000096C 0F46                   MOV.L       R4,@(R0,R15); box[]
            graphic.c        204          
            graphic.c        205                          //if ((box[2]-box[0])*(box[3]-box[1]) > 8192) continue;
            graphic.c        206    
            graphic.c        207                          // is it entirely offscreen? (sanity check)
            graphic.c        208                          if (box[2] < 0 || box[0] > 127 || box[3] < 0 || box[1] > 63) continue;
    0000096E E070                   MOV         #112,R0    ; H'00000070
    00000970 05FE                   MOV.L       @(R0,R15),R5; box[]
    00000972 7074                   ADD         #116,R0
    00000974 4511                   CMP/PZ      R5
    00000976 8D03                   BT/S        L213
    00000978 0F56                   MOV.L       R5,@(R0,R15)
    0000097A D3E3                   MOV.L       L194+2,R3  ; L69
    0000097C 432B                   JMP         @R3
    0000097E 0009                   NOP
    00000980              L213:
    00000980 E068                   MOV         #104,R0    ; H'00000068
    00000982 0EFE                   MOV.L       @(R0,R15),R14; box[]
    00000984 EC7F                   MOV         #127,R12   ; H'0000007F
    00000986 3EC7                   CMP/GT      R12,R14
    00000988 E0E8                   MOV         #-24,R0    ; H'FFFFFFE8
    0000098A 600C                   EXTU.B      R0,R0
    0000098C 8F03                   BF/S        L214
    0000098E 0FE6                   MOV.L       R14,@(R0,R15)
    00000990 D3DD                   MOV.L       L194+2,R3  ; L69
    00000992 432B                   JMP         @R3
    00000994 0009                   NOP
    00000996              L214:
    00000996 E058                   MOV         #88,R0     ; H'00000058
    00000998 4008                   SHLL2       R0
    0000099A 0CFE                   MOV.L       @(R0,R15),R12
    0000099C 4C11                   CMP/PZ      R12
    0000099E 8902                   BT          L215
    000009A0 D3D9                   MOV.L       L194+2,R3  ; L69
    000009A2 432B                   JMP         @R3
    000009A4 0009                   NOP
    000009A6              L215:
    000009A6 E06C                   MOV         #108,R0    ; H'0000006C
    000009A8 0EFE                   MOV.L       @(R0,R15),R14; box[]
    000009AA EC3F                   MOV         #63,R12    ; H'0000003F
    000009AC 3EC7                   CMP/GT      R12,R14
    000009AE 8B02                   BF          L216
    000009B0 D3D5                   MOV.L       L194+2,R3  ; L69
    000009B2 432B                   JMP         @R3
    000009B4 0009                   NOP
    000009B6              L216:
            graphic.c        209    
            graphic.c        210                          q_cnt++;
    000009B6 E0D0                   MOV         #-48,R0    ; H'FFFFFFD0
    000009B8 600C                   EXTU.B      R0,R0
    000009BA 08FE                   MOV.L       @(R0,R15),R8; q_cnt
    000009BC 7801                   ADD         #1,R8
    000009BE 0F86                   MOV.L       R8,@(R0,R15); q_cnt
            graphic.c        211    
            graphic.c        212    #define OF_SC 6       //overflow downscale constant
            graphic.c        213    #define U_MULTIPLIER 8
            graphic.c        214    #define V_MULTIPLIER 8
            graphic.c        215    #define UV_CONSTANT 8
            graphic.c        216    #define ZREC_MULTIPLIER 16
            graphic.c        217    
            graphic.c        218                          // the following code does barycentric coord calculation (u and v)
            graphic.c        219                          // https://blackpawn.com/texts/pointinpoly/
            graphic.c        220    
            graphic.c        221                          // these shouldn't change in any of the loops
            graphic.c        222                          // so precalculate everything
            graphic.c        223    
            graphic.c        224                          // u is on side CA and v is on side BA
            graphic.c        225    
            graphic.c        226                          v0 = divvi(subvv(c, a), OF_SC);
    000009C0 7FE8                   ADD         #-24,R15
    000009C2 6CF3                   MOV         R15,R12
    000009C4 7C4C                   ADD         #76,R12
    000009C6 64C2                   MOV.L       @R12,R4    ; (part of)a
    000009C8 57C1                   MOV.L       @(4,R12),R7; (part of)a
    000009CA 58C2                   MOV.L       @(8,R12),R8; (part of)a
    000009CC 2F42                   MOV.L       R4,@R15
    000009CE 1F71                   MOV.L       R7,@(4,R15)
    000009D0 1F82                   MOV.L       R8,@(8,R15)
    000009D2 7FF4                   ADD         #-12,R15
    000009D4 EC80                   MOV         #-128,R12  ; H'FFFFFF80
    000009D6 6CCC                   EXTU.B      R12,R12
    000009D8 62F3                   MOV         R15,R2
    000009DA 32CC                   ADD         R12,R2
    000009DC 5521                   MOV.L       @(4,R2),R5 ; (part of)c
    000009DE 6122                   MOV.L       @R2,R1     ; (part of)c
    000009E0 1F51                   MOV.L       R5,@(4,R15)
    000009E2 5422                   MOV.L       @(8,R2),R4 ; (part of)c
    000009E4 65F3                   MOV         R15,R5
    000009E6 D8C9                   MOV.L       L194+6,R8  ; _subvv
    000009E8 7518                   ADD         #24,R5
    000009EA 2F12                   MOV.L       R1,@R15
    000009EC 1F42                   MOV.L       R4,@(8,R15)
    000009EE 480B                   JSR         @R8
    000009F0 2F56                   MOV.L       R5,@-R15
    000009F2 7F1C                   ADD         #28,R15
    000009F4 E184                   MOV         #-124,R1   ; H'FFFFFF84
    000009F6 611C                   EXTU.B      R1,R1
    000009F8 67F3                   MOV         R15,R7
    000009FA 371C                   ADD         R1,R7
    000009FC 2F76                   MOV.L       R7,@-R15
    000009FE DCC4                   MOV.L       L194+10,R12; _divvi
    00000A00 4C0B                   JSR         @R12
    00000A02 E406                   MOV         #6,R4      ; H'00000006
    00000A04 7FF8                   ADD         #-8,R15
            graphic.c        227                          v1 = divvi(subvv(b, a), OF_SC);
    00000A06 65F3                   MOV         R15,R5
    00000A08 754C                   ADD         #76,R5
    00000A0A 6652                   MOV.L       @R5,R6     ; (part of)a
    00000A0C 5151                   MOV.L       @(4,R5),R1 ; (part of)a
    00000A0E 5452                   MOV.L       @(8,R5),R4 ; (part of)a
    00000A10 2F62                   MOV.L       R6,@R15
    00000A12 1F11                   MOV.L       R1,@(4,R15)
    00000A14 1F42                   MOV.L       R4,@(8,R15)
    00000A16 7FF4                   ADD         #-12,R15
    00000A18 E76C                   MOV         #108,R7    ; H'0000006C
    00000A1A 65F3                   MOV         R15,R5
    00000A1C 357C                   ADD         R7,R5
    00000A1E 5252                   MOV.L       @(8,R5),R2 ; (part of)b
    00000A20 6652                   MOV.L       @R5,R6     ; (part of)b
    00000A22 5151                   MOV.L       @(4,R5),R1 ; (part of)b
    00000A24 1F22                   MOV.L       R2,@(8,R15)
    00000A26 62F3                   MOV         R15,R2
    00000A28 7218                   ADD         #24,R2
    00000A2A 2F62                   MOV.L       R6,@R15
    00000A2C 1F11                   MOV.L       R1,@(4,R15)
    00000A2E 480B                   JSR         @R8
    00000A30 2F26                   MOV.L       R2,@-R15
    00000A32 7F1C                   ADD         #28,R15
    00000A34 E690                   MOV         #-112,R6   ; H'FFFFFF90
    00000A36 666C                   EXTU.B      R6,R6
    00000A38 68F3                   MOV         R15,R8
    00000A3A 386C                   ADD         R6,R8
    00000A3C 2F86                   MOV.L       R8,@-R15
    00000A3E 4C0B                   JSR         @R12
    00000A40 E406                   MOV         #6,R4      ; H'00000006
    00000A42 7F10                   ADD         #16,R15
            graphic.c        228                          v0x_sc = divfi(v0.x, OF_SC); v1x_sc = divfi(v1.x, OF_SC);
    00000A44 E078                   MOV         #120,R0    ; H'00000078
    00000A46 D2B3                   MOV.L       L194+14,R2 ; H'2AAAAAAB
    00000A48 08FE                   MOV.L       @(R0,R15),R8; v0.x
    00000A4A 328D                   DMULS.L     R8,R2
    00000A4C 040A                   STS         MACH,R4
    00000A4E 6043                   MOV         R4,R0
    00000A50 4004                   ROTL        R0
    00000A52 C901                   AND         #1,R0
    00000A54 340C                   ADD         R0,R4
    00000A56 E0EC                   MOV         #-20,R0    ; H'FFFFFFEC
    00000A58 600C                   EXTU.B      R0,R0
    00000A5A 0F46                   MOV.L       R4,@(R0,R15)
    00000A5C 7098                   ADD         #-104,R0
    00000A5E 0CFE                   MOV.L       @(R0,R15),R12; v1.x
    00000A60 32CD                   DMULS.L     R12,R2
    00000A62 050A                   STS         MACH,R5
    00000A64 6053                   MOV         R5,R0
    00000A66 4004                   ROTL        R0
    00000A68 C901                   AND         #1,R0
    00000A6A 350C                   ADD         R0,R5
    00000A6C E0C8                   MOV         #-56,R0    ; H'FFFFFFC8
    00000A6E 600C                   EXTU.B      R0,R0
    00000A70 0F56                   MOV.L       R5,@(R0,R15)
            graphic.c        229                          
            graphic.c        230                          dot00 = dotp(v0, v0);
    00000A72 7FF0                   ADD         #-16,R15
    00000A74 388D                   DMULS.L     R8,R8
    00000A76 64F3                   MOV         R15,R4
    00000A78 7408                   ADD         #8,R4
    00000A7A 010A                   STS         MACH,R1
    00000A7C 071A                   STS         MACL,R7
    00000A7E 2F12                   MOV.L       R1,@R15
    00000A80 1F71                   MOV.L       R7,@(4,R15)
    00000A82 2F46                   MOV.L       R4,@-R15
    00000A84 DCA4                   MOV.L       L194+18,R12; __shard64
    00000A86 4C0B                   JSR         @R12
    00000A88 E10A                   MOV         #10,R1     ; H'0000000A
    00000A8A 7F0C                   ADD         #12,R15
    00000A8C 65F6                   MOV.L       @R15+,R5
    00000A8E 702C                   ADD         #44,R0
    00000A90 65F2                   MOV.L       @R15,R5
    00000A92 0F56                   MOV.L       R5,@(R0,R15)
    00000A94 7FF4                   ADD         #-12,R15
    00000A96 7098                   ADD         #-104,R0
    00000A98 01FE                   MOV.L       @(R0,R15),R1; v0.y
    00000A9A 311D                   DMULS.L     R1,R1
    00000A9C 61F3                   MOV         R15,R1
    00000A9E 7108                   ADD         #8,R1
    00000AA0 070A                   STS         MACH,R7
    00000AA2 021A                   STS         MACL,R2
    00000AA4 2F72                   MOV.L       R7,@R15
    00000AA6 1F21                   MOV.L       R2,@(4,R15)
    00000AA8 2F16                   MOV.L       R1,@-R15
    00000AAA 4C0B                   JSR         @R12
    00000AAC E10A                   MOV         #10,R1     ; H'0000000A
    00000AAE 7F0C                   ADD         #12,R15
    00000AB0 64F6                   MOV.L       @R15+,R4
    00000AB2 64F6                   MOV.L       @R15+,R4
    00000AB4 7064                   ADD         #100,R0
    00000AB6 05FE                   MOV.L       @(R0,R15),R5
    00000AB8 354C                   ADD         R4,R5
    00000ABA 0F56                   MOV.L       R5,@(R0,R15)
    00000ABC 7FF0                   ADD         #-16,R15
    00000ABE 70A0                   ADD         #-96,R0
    00000AC0 07FE                   MOV.L       @(R0,R15),R7; v0.z
    00000AC2 66F3                   MOV         R15,R6
    00000AC4 377D                   DMULS.L     R7,R7
    00000AC6 7608                   ADD         #8,R6
    00000AC8 050A                   STS         MACH,R5
    00000ACA 011A                   STS         MACL,R1
    00000ACC 2F52                   MOV.L       R5,@R15
    00000ACE 1F11                   MOV.L       R1,@(4,R15)
    00000AD0 2F66                   MOV.L       R6,@-R15
    00000AD2 4C0B                   JSR         @R12
    00000AD4 E10A                   MOV         #10,R1     ; H'0000000A
    00000AD6 7F0C                   ADD         #12,R15
    00000AD8 67F6                   MOV.L       @R15+,R7
    00000ADA 67F6                   MOV.L       @R15+,R7
    00000ADC 7060                   ADD         #96,R0
    00000ADE 02FE                   MOV.L       @(R0,R15),R2
    00000AE0 327C                   ADD         R7,R2
    00000AE2 0F26                   MOV.L       R2,@(R0,R15)
            graphic.c        231                          dot01 = dotp(v0, v1);
    00000AE4 7FF0                   ADD         #-16,R15
    00000AE6 70A4                   ADD         #-92,R0
    00000AE8 01FE                   MOV.L       @(R0,R15),R1; v1.x
    00000AEA 318D                   DMULS.L     R8,R1
    00000AEC 051A                   STS         MACL,R5
    00000AEE 1F51                   MOV.L       R5,@(4,R15)
    00000AF0 65F3                   MOV         R15,R5
    00000AF2 040A                   STS         MACH,R4
    00000AF4 7508                   ADD         #8,R5
    00000AF6 2F42                   MOV.L       R4,@R15
    00000AF8 2F56                   MOV.L       R5,@-R15
    00000AFA 4C0B                   JSR         @R12
    00000AFC E10A                   MOV         #10,R1     ; H'0000000A
    00000AFE 7F0C                   ADD         #12,R15
    00000B00 67F6                   MOV.L       @R15+,R7
    00000B02 68F6                   MOV.L       @R15+,R8
    00000B04 7FF0                   ADD         #-16,R15
    00000B06 7004                   ADD         #4,R0
    00000B08 02FE                   MOV.L       @(R0,R15),R2; v1.y
    00000B0A 70F4                   ADD         #-12,R0
    00000B0C 07FE                   MOV.L       @(R0,R15),R7; v0.y
    00000B0E 327D                   DMULS.L     R7,R2
    00000B10 040A                   STS         MACH,R4
    00000B12 2F42                   MOV.L       R4,@R15
    00000B14 64F3                   MOV         R15,R4
    00000B16 011A                   STS         MACL,R1
    00000B18 7408                   ADD         #8,R4
    00000B1A 1F11                   MOV.L       R1,@(4,R15)
    00000B1C 2F46                   MOV.L       R4,@-R15
    00000B1E 4C0B                   JSR         @R12
    00000B20 E10A                   MOV         #10,R1     ; H'0000000A
    00000B22 7F0C                   ADD         #12,R15
    00000B24 65F6                   MOV.L       @R15+,R5
    00000B26 65F6                   MOV.L       @R15+,R5
    00000B28 385C                   ADD         R5,R8
    00000B2A 7FF0                   ADD         #-16,R15
    00000B2C 7010                   ADD         #16,R0
    00000B2E 05FE                   MOV.L       @(R0,R15),R5; v1.z
    00000B30 70F4                   ADD         #-12,R0
    00000B32 07FE                   MOV.L       @(R0,R15),R7; v0.z
    00000B34 64F3                   MOV         R15,R4
    00000B36 357D                   DMULS.L     R7,R5
    00000B38 7408                   ADD         #8,R4
    00000B3A 070A                   STS         MACH,R7
    00000B3C 011A                   STS         MACL,R1
    00000B3E 2F72                   MOV.L       R7,@R15
    00000B40 1F11                   MOV.L       R1,@(4,R15)
    00000B42 2F46                   MOV.L       R4,@-R15
    00000B44 4C0B                   JSR         @R12
    00000B46 E10A                   MOV         #10,R1     ; H'0000000A
    00000B48 7F0C                   ADD         #12,R15
    00000B4A 65F6                   MOV.L       @R15+,R5
    00000B4C 65F6                   MOV.L       @R15+,R5
    00000B4E 7064                   ADD         #100,R0
    00000B50 385C                   ADD         R5,R8
    00000B52 0F86                   MOV.L       R8,@(R0,R15)
            graphic.c        232                          dot11 = dotp(v1, v1);   
    00000B54 7FF0                   ADD         #-16,R15
    00000B56 70A0                   ADD         #-96,R0
    00000B58 02FE                   MOV.L       @(R0,R15),R2; v1.x
    00000B5A 61F3                   MOV         R15,R1
    00000B5C 322D                   DMULS.L     R2,R2
    00000B5E 7108                   ADD         #8,R1
    00000B60 070A                   STS         MACH,R7
    00000B62 041A                   STS         MACL,R4
    00000B64 2F72                   MOV.L       R7,@R15
    00000B66 1F41                   MOV.L       R4,@(4,R15)
    00000B68 2F16                   MOV.L       R1,@-R15
    00000B6A 4C0B                   JSR         @R12
    00000B6C E10A                   MOV         #10,R1     ; H'0000000A
    00000B6E 7F0C                   ADD         #12,R15
    00000B70 64F6                   MOV.L       @R15+,R4
    00000B72 7068                   ADD         #104,R0
    00000B74 64F2                   MOV.L       @R15,R4
    00000B76 0F46                   MOV.L       R4,@(R0,R15)
    00000B78 7FF4                   ADD         #-12,R15
    00000B7A 709C                   ADD         #-100,R0
    00000B7C 05FE                   MOV.L       @(R0,R15),R5; v1.y
    00000B7E 355D                   DMULS.L     R5,R5
    00000B80 071A                   STS         MACL,R7
    00000B82 1F71                   MOV.L       R7,@(4,R15)
    00000B84 67F3                   MOV         R15,R7
    00000B86 050A                   STS         MACH,R5
    00000B88 7708                   ADD         #8,R7
    00000B8A 2F52                   MOV.L       R5,@R15
    00000B8C 2F76                   MOV.L       R7,@-R15
    00000B8E 4C0B                   JSR         @R12
    00000B90 E10A                   MOV         #10,R1     ; H'0000000A
    00000B92 7F0C                   ADD         #12,R15
    00000B94 61F6                   MOV.L       @R15+,R1
    00000B96 61F6                   MOV.L       @R15+,R1
    00000B98 7060                   ADD         #96,R0
    00000B9A 02FE                   MOV.L       @(R0,R15),R2
    00000B9C 321C                   ADD         R1,R2
    00000B9E 0F26                   MOV.L       R2,@(R0,R15)
    00000BA0 7FF0                   ADD         #-16,R15
    00000BA2 70A4                   ADD         #-92,R0
    00000BA4 04FE                   MOV.L       @(R0,R15),R4; v1.z
    00000BA6 65F3                   MOV         R15,R5
    00000BA8 344D                   DMULS.L     R4,R4
    00000BAA 7508                   ADD         #8,R5
    00000BAC 060A                   STS         MACH,R6
    00000BAE 041A                   STS         MACL,R4
    00000BB0 2F62                   MOV.L       R6,@R15
    00000BB2 1F41                   MOV.L       R4,@(4,R15)
    00000BB4 2F56                   MOV.L       R5,@-R15
    00000BB6 4C0B                   JSR         @R12
    00000BB8 E10A                   MOV         #10,R1     ; H'0000000A
    00000BBA 7F0C                   ADD         #12,R15
    00000BBC 67F6                   MOV.L       @R15+,R7
    00000BBE 67F6                   MOV.L       @R15+,R7
    00000BC0 705C                   ADD         #92,R0
    00000BC2 06FE                   MOV.L       @(R0,R15),R6
    00000BC4 367C                   ADD         R7,R6
    00000BC6 0F66                   MOV.L       R6,@(R0,R15)
            graphic.c        233                          denom = mulff(dot00, dot11) - mulff(dot01, dot01);
    00000BC8 7FF0                   ADD         #-16,R15
    00000BCA 7010                   ADD         #16,R0
    00000BCC 06FE                   MOV.L       @(R0,R15),R6
    00000BCE 70F8                   ADD         #-8,R0
    00000BD0 01FE                   MOV.L       @(R0,R15),R1
    00000BD2 65F3                   MOV         R15,R5
    00000BD4 361D                   DMULS.L     R1,R6
    00000BD6 7508                   ADD         #8,R5
    00000BD8 040A                   STS         MACH,R4
    00000BDA 061A                   STS         MACL,R6
    00000BDC 2F42                   MOV.L       R4,@R15
    00000BDE 1F61                   MOV.L       R6,@(4,R15)
    00000BE0 2F56                   MOV.L       R5,@-R15
    00000BE2 4C0B                   JSR         @R12
    00000BE4 E10A                   MOV         #10,R1     ; H'0000000A
    00000BE6 7F0C                   ADD         #12,R15
    00000BE8 67F6                   MOV.L       @R15+,R7
    00000BEA 67F2                   MOV.L       @R15,R7
    00000BEC 0F76                   MOV.L       R7,@(R0,R15)
    00000BEE 7FF4                   ADD         #-12,R15
    00000BF0 388D                   DMULS.L     R8,R8
    00000BF2 61F3                   MOV         R15,R1
    00000BF4 7108                   ADD         #8,R1
    00000BF6 060A                   STS         MACH,R6
    00000BF8 081A                   STS         MACL,R8
    00000BFA 2F62                   MOV.L       R6,@R15
    00000BFC 1F81                   MOV.L       R8,@(4,R15)
    00000BFE 2F16                   MOV.L       R1,@-R15
    00000C00 4C0B                   JSR         @R12
    00000C02 E10A                   MOV         #10,R1     ; H'0000000A
    00000C04 7F0C                   ADD         #12,R15
    00000C06 64F6                   MOV.L       @R15+,R4
    00000C08 64F6                   MOV.L       @R15+,R4
    00000C0A 70FC                   ADD         #-4,R0
    00000C0C 08FE                   MOV.L       @(R0,R15),R8
    00000C0E 3848                   SUB         R4,R8
    00000C10 0F86                   MOV.L       R8,@(R0,R15)
            graphic.c        234    
            graphic.c        235    
            graphic.c        236                          // 1/z and U/z V/z coordinates of vertices b and c (for perspective correction)
            graphic.c        237                          // https://en.wikipedia.org/wiki/Texture_mapping#Perspective_correctness
            graphic.c        238                          
            graphic.c        239                          oza = divff(int2f(ZREC_MULTIPLIER), t.a.z);
    00000C12 7FF8                   ADD         #-8,R15
    00000C14 E540                   MOV         #64,R5     ; H'00000040
    00000C16 4518                   SHLL8       R5
    00000C18 6253                   MOV         R5,R2
    00000C1A 4200                   SHLL        R2
    00000C1C 322A                   SUBC        R2,R2
    00000C1E E698                   MOV         #-104,R6   ; H'FFFFFF98
    00000C20 1F51                   MOV.L       R5,@(4,R15)
    00000C22 666C                   EXTU.B      R6,R6
    00000C24 65F3                   MOV         R15,R5
    00000C26 356C                   ADD         R6,R5
    00000C28 2F22                   MOV.L       R2,@R15
    00000C2A 2F56                   MOV.L       R5,@-R15
    00000C2C D83B                   MOV.L       L194+22,R8 ; __shlld64
    00000C2E E10A                   MOV         #10,R1     ; H'0000000A
    00000C30 480B                   JSR         @R8
    00000C32 6293                   MOV         R9,R2
    00000C34 4200                   SHLL        R2
    00000C36 322A                   SUBC        R2,R2
    00000C38 2F26                   MOV.L       R2,@-R15
    00000C3A 7608                   ADD         #8,R6
    00000C3C 67F3                   MOV         R15,R7
    00000C3E 376C                   ADD         R6,R7
    00000C40 1F91                   MOV.L       R9,@(4,R15)
    00000C42 5971                   MOV.L       @(4,R7),R9
    00000C44 6472                   MOV.L       @R7,R4
    00000C46 2F96                   MOV.L       R9,@-R15
    00000C48 2F46                   MOV.L       R4,@-R15
    00000C4A 68F3                   MOV         R15,R8
    00000C4C 7810                   ADD         #16,R8
    00000C4E D934                   MOV.L       L194+26,R9 ; __div64s
    00000C50 490B                   JSR         @R9
    00000C52 2F86                   MOV.L       R8,@-R15
    00000C54 7F14                   ADD         #20,R15
    00000C56 64F6                   MOV.L       @R15+,R4
    00000C58 7008                   ADD         #8,R0
    00000C5A 64F2                   MOV.L       @R15,R4
    00000C5C 0F46                   MOV.L       R4,@(R0,R15)
    00000C5E 7FF4                   ADD         #-12,R15
            graphic.c        240                          ozb = divff(int2f(ZREC_MULTIPLIER), t.b.z);
    00000C60 62A3                   MOV         R10,R2
    00000C62 4200                   SHLL        R2
    00000C64 322A                   SUBC        R2,R2
    00000C66 1FA1                   MOV.L       R10,@(4,R15)
    00000C68 EAA0                   MOV         #-96,R10   ; H'FFFFFFA0
    00000C6A 6AAC                   EXTU.B      R10,R10
    00000C6C 67F3                   MOV         R15,R7
    00000C6E 37AC                   ADD         R10,R7
    00000C70 5A71                   MOV.L       @(4,R7),R10
    00000C72 6872                   MOV.L       @R7,R8
    00000C74 2F22                   MOV.L       R2,@R15
    00000C76 2FA6                   MOV.L       R10,@-R15
    00000C78 2F86                   MOV.L       R8,@-R15
    00000C7A 68F3                   MOV         R15,R8
    00000C7C 7810                   ADD         #16,R8
    00000C7E 490B                   JSR         @R9
    00000C80 2F86                   MOV.L       R8,@-R15
    00000C82 7F14                   ADD         #20,R15
    00000C84 62F6                   MOV.L       @R15+,R2
    00000C86 7004                   ADD         #4,R0
    00000C88 6AF2                   MOV.L       @R15,R10
    00000C8A 0FA6                   MOV.L       R10,@(R0,R15)
    00000C8C 7FF4                   ADD         #-12,R15
            graphic.c        241                          ozc = divff(int2f(ZREC_MULTIPLIER), t.c.z);
    00000C8E 62B3                   MOV         R11,R2
    00000C90 4200                   SHLL        R2
    00000C92 322A                   SUBC        R2,R2
    00000C94 E8A0                   MOV         #-96,R8    ; H'FFFFFFA0
    00000C96 1FB1                   MOV.L       R11,@(4,R15)
    00000C98 688C                   EXTU.B      R8,R8
    00000C9A 6BF3                   MOV         R15,R11
    00000C9C 3B8C                   ADD         R8,R11
    00000C9E 56B1                   MOV.L       @(4,R11),R6
    00000CA0 2F22                   MOV.L       R2,@R15
    00000CA2 62B2                   MOV.L       @R11,R2
    00000CA4 2F66                   MOV.L       R6,@-R15
    00000CA6 2F26                   MOV.L       R2,@-R15
    00000CA8 64F3                   MOV         R15,R4
    00000CAA 7410                   ADD         #16,R4
    00000CAC 490B                   JSR         @R9
    00000CAE 2F46                   MOV.L       R4,@-R15
    00000CB0 7F14                   ADD         #20,R15
    00000CB2 67F6                   MOV.L       @R15+,R7
    00000CB4 7004                   ADD         #4,R0
    00000CB6 6BF2                   MOV.L       @R15,R11
    00000CB8 0FB6                   MOV.L       R11,@(R0,R15)
    00000CBA 7FF4                   ADD         #-12,R15
            graphic.c        242                          
            graphic.c        243                          //uza = 0;
            graphic.c        244                          //vza = 0;
            graphic.c        245                          //uzb = 0;
            graphic.c        246                          vzb = mulff(int2f(U_MULTIPLIER), ozb);
    00000CBC E520                   MOV         #32,R5     ; H'00000020
    00000CBE 4518                   SHLL8       R5
    00000CC0 3A5D                   DMULS.L     R5,R10
    00000CC2 68F3                   MOV         R15,R8
    00000CC4 7808                   ADD         #8,R8
    00000CC6 070A                   STS         MACH,R7
    00000CC8 091A                   STS         MACL,R9
    00000CCA 2F72                   MOV.L       R7,@R15
    00000CCC 1F91                   MOV.L       R9,@(4,R15)
    00000CCE 2F86                   MOV.L       R8,@-R15
    00000CD0 4C0B                   JSR         @R12
    00000CD2 E10A                   MOV         #10,R1     ; H'0000000A
    00000CD4 7F0C                   ADD         #12,R15
    00000CD6 69F6                   MOV.L       @R15+,R9
    00000CD8 7004                   ADD         #4,R0
    00000CDA 69F2                   MOV.L       @R15,R9
    00000CDC 0F96                   MOV.L       R9,@(R0,R15)
    00000CDE 7FF4                   ADD         #-12,R15
            graphic.c        247                          uzc = mulff(int2f(V_MULTIPLIER), ozc);
    00000CE0 3B5D                   DMULS.L     R5,R11
    00000CE2 0B0A                   STS         MACH,R11
    00000CE4 2FB2                   MOV.L       R11,@R15
    00000CE6 6BF3                   MOV         R15,R11
    00000CE8 0A1A                   STS         MACL,R10
    00000CEA 7B08                   ADD         #8,R11
    00000CEC 1FA1                   MOV.L       R10,@(4,R15)
    00000CEE 2FB6                   MOV.L       R11,@-R15
    00000CF0 4C0B                   JSR         @R12
    00000CF2 E10A                   MOV         #10,R1     ; H'0000000A
    00000CF4 7F0C                   ADD         #12,R15
    00000CF6 6CF6                   MOV.L       @R15+,R12
    00000CF8 7004                   ADD         #4,R0
    00000CFA 6CF2                   MOV.L       @R15,R12
    00000CFC 0FC6                   MOV.L       R12,@(R0,R15)
    00000CFE 7F04                   ADD         #4,R15
            graphic.c        248                          //vzc = 0;
            graphic.c        249                          
            graphic.c        250                          found = 0;
            graphic.c        251    
            graphic.c        252                          // iterate on every row of the bounding box
            graphic.c        253                          for (yiter = box[1]; yiter < box[3]; yiter += 1) {
    00000D00 0FE6                   MOV.L       R14,@(R0,R15); yiter
    00000D02 A00F                   BRA         L193
    00000D04 704C                   ADD         #76,R0
    00000D06              L194:
    00000D06 00000002               .RES.W      1
    00000D08 <00000000>             .DATA.L     L69
    00000D0C <00000000>             .DATA.L     _subvv
    00000D10 <00000000>             .DATA.L     _divvi
    00000D14 2AAAAAAB               .DATA.L     H'2AAAAAAB
    00000D18 <00000000>             .DATA.L     __shard64
    00000D1C <00000000>             .DATA.L     __shlld64
    00000D20 <00000000>             .DATA.L     __div64s
    00000D24              L193:
    00000D24 0CFE                   MOV.L       @(R0,R15),R12
    00000D26 3EC3                   CMP/GE      R12,R14
    00000D28 8B01                   BF          L217
    00000D2A A73C                   BRA         L69
    00000D2C 0009                   NOP
    00000D2E              L217:
    00000D2E              L103:
            graphic.c        254                                  if (yiter < 0 || yiter >= 64) continue;
    00000D2E E045                   MOV         #69,R0     ; H'00000045
    00000D30 4008                   SHLL2       R0
    00000D32 02FE                   MOV.L       @(R0,R15),R2; yiter
    00000D34 4211                   CMP/PZ      R2
    00000D36 8901                   BT          L218
    00000D38 A72A                   BRA         L104
    00000D3A 0009                   NOP
    00000D3C              L218:
    00000D3C 02FE                   MOV.L       @(R0,R15),R2; yiter
    00000D3E EE40                   MOV         #64,R14    ; H'00000040
    00000D40 32E3                   CMP/GE      R14,R2
    00000D42 8B01                   BF          L219
    00000D44 A724                   BRA         L104
    00000D46 0009                   NOP
    00000D48              L219:
            graphic.c        255    
            graphic.c        256                                  v2 = divvi(subvv(ivec3f(int2f(box[0]), int2f(yiter), 0), a), OF_SC);
    00000D48 05FE                   MOV.L       @(R0,R15),R5; yiter
    00000D4A E046                   MOV         #70,R0     ; H'00000046
    00000D4C 4518                   SHLL8       R5
    00000D4E 4508                   SHLL2       R5
    00000D50 4008                   SHLL2       R0
    00000D52 0F56                   MOV.L       R5,@(R0,R15)
    00000D54 7FE8                   ADD         #-24,R15
    00000D56 69F3                   MOV         R15,R9
    00000D58 794C                   ADD         #76,R9
    00000D5A 6792                   MOV.L       @R9,R7     ; (part of)a
    00000D5C 5A91                   MOV.L       @(4,R9),R10; (part of)a
    00000D5E 5892                   MOV.L       @(8,R9),R8 ; (part of)a
    00000D60 2F72                   MOV.L       R7,@R15
    00000D62 1FA1                   MOV.L       R10,@(4,R15)
    00000D64 1F82                   MOV.L       R8,@(8,R15)
    00000D66 7FF4                   ADD         #-12,R15
    00000D68 70F4                   ADD         #-12,R0
    00000D6A 09FE                   MOV.L       @(R0,R15),R9
    00000D6C 6AF3                   MOV         R15,R10
    00000D6E 6493                   MOV         R9,R4
    00000D70 4418                   SHLL8       R4
    00000D72 4408                   SHLL2       R4
    00000D74 2FA6                   MOV.L       R10,@-R15
    00000D76 DC78                   MOV.L       L195+2,R12 ; _ivec3f
    00000D78 4C0B                   JSR         @R12
    00000D7A E600                   MOV         #0,R6      ; H'00000000
    00000D7C 7F04                   ADD         #4,R15
    00000D7E 6BF3                   MOV         R15,R11
    00000D80 7B18                   ADD         #24,R11
    00000D82 D876                   MOV.L       L195+6,R8  ; _subvv
    00000D84 480B                   JSR         @R8
    00000D86 2FB6                   MOV.L       R11,@-R15
    00000D88 7F1C                   ADD         #28,R15
    00000D8A EBA4                   MOV         #-92,R11   ; H'FFFFFFA4
    00000D8C 6BBC                   EXTU.B      R11,R11
    00000D8E 6CF3                   MOV         R15,R12
    00000D90 3CBC                   ADD         R11,R12
    00000D92 2FC6                   MOV.L       R12,@-R15
    00000D94 DA72                   MOV.L       L195+10,R10; _divvi
    00000D96 4A0B                   JSR         @R10
    00000D98 E406                   MOV         #6,R4      ; H'00000006
            graphic.c        257                                  dot02 = dotp(v0, v2);
    00000D9A E088                   MOV         #-120,R0   ; H'FFFFFF88
    00000D9C 600C                   EXTU.B      R0,R0
    00000D9E 0BFE                   MOV.L       @(R0,R15),R11; v0.x
    00000DA0 7020                   ADD         #32,R0
    00000DA2 02FE                   MOV.L       @(R0,R15),R2; v2.x
    00000DA4 61F3                   MOV         R15,R1
    00000DA6 32BD                   DMULS.L     R11,R2
    00000DA8 7108                   ADD         #8,R1
    00000DAA 0E0A                   STS         MACH,R14
    00000DAC 0C1A                   STS         MACL,R12
    00000DAE 2FE2                   MOV.L       R14,@R15
    00000DB0 1FC1                   MOV.L       R12,@(4,R15)
    00000DB2 2F16                   MOV.L       R1,@-R15
    00000DB4 DC6B                   MOV.L       L195+14,R12; __shard64
    00000DB6 4C0B                   JSR         @R12
    00000DB8 E10A                   MOV         #10,R1     ; H'0000000A
    00000DBA 7F0C                   ADD         #12,R15
    00000DBC 66F6                   MOV.L       @R15+,R6
    00000DBE 6BF6                   MOV.L       @R15+,R11
    00000DC0 7FF0                   ADD         #-16,R15
    00000DC2 70E4                   ADD         #-28,R0
    00000DC4 06FE                   MOV.L       @(R0,R15),R6; v0.y
    00000DC6 7020                   ADD         #32,R0
    00000DC8 05FE                   MOV.L       @(R0,R15),R5; v2.y
    00000DCA 68F3                   MOV         R15,R8
    00000DCC 356D                   DMULS.L     R6,R5
    00000DCE 7808                   ADD         #8,R8
    00000DD0 070A                   STS         MACH,R7
    00000DD2 0E1A                   STS         MACL,R14
    00000DD4 2F72                   MOV.L       R7,@R15
    00000DD6 1FE1                   MOV.L       R14,@(4,R15)
    00000DD8 2F86                   MOV.L       R8,@-R15
    00000DDA 4C0B                   JSR         @R12
    00000DDC E10A                   MOV         #10,R1     ; H'0000000A
    00000DDE 7F0C                   ADD         #12,R15
    00000DE0 6AF6                   MOV.L       @R15+,R10
    00000DE2 6AF6                   MOV.L       @R15+,R10
    00000DE4 3BAC                   ADD         R10,R11
    00000DE6 7FF0                   ADD         #-16,R15
    00000DE8 70E4                   ADD         #-28,R0
    00000DEA 08FE                   MOV.L       @(R0,R15),R8; v0.z
    00000DEC 7020                   ADD         #32,R0
    00000DEE 0EFE                   MOV.L       @(R0,R15),R14; v2.z
    00000DF0 66F3                   MOV         R15,R6
    00000DF2 3E8D                   DMULS.L     R8,R14
    00000DF4 7608                   ADD         #8,R6
    00000DF6 010A                   STS         MACH,R1
    00000DF8 041A                   STS         MACL,R4
    00000DFA 2F12                   MOV.L       R1,@R15
    00000DFC 1F41                   MOV.L       R4,@(4,R15)
    00000DFE 2F66                   MOV.L       R6,@-R15
    00000E00 4C0B                   JSR         @R12
    00000E02 E10A                   MOV         #10,R1     ; H'0000000A
    00000E04 7F0C                   ADD         #12,R15
    00000E06 67F6                   MOV.L       @R15+,R7
    00000E08 67F6                   MOV.L       @R15+,R7
    00000E0A 3B7C                   ADD         R7,R11
            graphic.c        258                                  dot12 = dotp(v1, v2);
    00000E0C 7FF0                   ADD         #-16,R15
    00000E0E 70E4                   ADD         #-28,R0
    00000E10 08FE                   MOV.L       @(R0,R15),R8; v1.x
    00000E12 64F3                   MOV         R15,R4
    00000E14 328D                   DMULS.L     R8,R2
    00000E16 7408                   ADD         #8,R4
    00000E18 070A                   STS         MACH,R7
    00000E1A 0A1A                   STS         MACL,R10
    00000E1C 2F72                   MOV.L       R7,@R15
    00000E1E 1FA1                   MOV.L       R10,@(4,R15)
    00000E20 2F46                   MOV.L       R4,@-R15
    00000E22 4C0B                   JSR         @R12
    00000E24 E10A                   MOV         #10,R1     ; H'0000000A
    00000E26 7F0C                   ADD         #12,R15
    00000E28 67F6                   MOV.L       @R15+,R7
    00000E2A 6AF6                   MOV.L       @R15+,R10
    00000E2C 7FF0                   ADD         #-16,R15
    00000E2E 7004                   ADD         #4,R0
    00000E30 07FE                   MOV.L       @(R0,R15),R7; v1.y
    00000E32 64F3                   MOV         R15,R4
    00000E34 357D                   DMULS.L     R7,R5
    00000E36 7408                   ADD         #8,R4
    00000E38 080A                   STS         MACH,R8
    00000E3A 021A                   STS         MACL,R2
    00000E3C 2F82                   MOV.L       R8,@R15
    00000E3E 1F21                   MOV.L       R2,@(4,R15)
    00000E40 2F46                   MOV.L       R4,@-R15
    00000E42 4C0B                   JSR         @R12
    00000E44 E10A                   MOV         #10,R1     ; H'0000000A
    00000E46 7F0C                   ADD         #12,R15
    00000E48 65F6                   MOV.L       @R15+,R5
    00000E4A 65F6                   MOV.L       @R15+,R5
    00000E4C 3A5C                   ADD         R5,R10
    00000E4E 7FF0                   ADD         #-16,R15
    00000E50 7004                   ADD         #4,R0
    00000E52 05FE                   MOV.L       @(R0,R15),R5; v1.z
    00000E54 3E5D                   DMULS.L     R5,R14
    00000E56 020A                   STS         MACH,R2
    00000E58 2F22                   MOV.L       R2,@R15
    00000E5A 62F3                   MOV         R15,R2
    00000E5C 061A                   STS         MACL,R6
    00000E5E 7208                   ADD         #8,R2
    00000E60 1F61                   MOV.L       R6,@(4,R15)
    00000E62 2F26                   MOV.L       R2,@-R15
    00000E64 4C0B                   JSR         @R12
    00000E66 E10A                   MOV         #10,R1     ; H'0000000A
    00000E68 7F0C                   ADD         #12,R15
    00000E6A 62F6                   MOV.L       @R15+,R2
    00000E6C 62F6                   MOV.L       @R15+,R2
    00000E6E 7048                   ADD         #72,R0
    00000E70 0EFE                   MOV.L       @(R0,R15),R14
    00000E72 68E3                   MOV         R14,R8
    00000E74 78FF                   ADD         #-1,R8
    00000E76 3E87                   CMP/GT      R8,R14
    00000E78 8D76                   BT/S        L108
    00000E7A 3A2C                   ADD         R2,R10
    00000E7C 08FE                   MOV.L       @(R0,R15),R8
    00000E7E 3987                   CMP/GT      R8,R9
    00000E80 8B01                   BF          L220
    00000E82 A685                   BRA         L110
    00000E84 0009                   NOP
    00000E86              L220:
    00000E86 E0CC                   MOV         #-52,R0    ; H'FFFFFFCC
    00000E88 600C                   EXTU.B      R0,R0
    00000E8A 0FD6                   MOV.L       R13,@(R0,R15)
    00000E8C 70FC                   ADD         #-4,R0
    00000E8E 0DFE                   MOV.L       @(R0,R15),R13
    00000E90              L111:
    00000E90 7FF0                   ADD         #-16,R15
    00000E92 E042                   MOV         #66,R0     ; H'00000042
    00000E94 4008                   SHLL2       R0
    00000E96 0CFE                   MOV.L       @(R0,R15),R12
    00000E98 6EF3                   MOV         R15,R14
    00000E9A 3BCD                   DMULS.L     R12,R11
    00000E9C 7E08                   ADD         #8,R14
    00000E9E 0C0A                   STS         MACH,R12
    00000EA0 081A                   STS         MACL,R8
    00000EA2 2FC2                   MOV.L       R12,@R15
    00000EA4 1F81                   MOV.L       R8,@(4,R15)
    00000EA6 2FE6                   MOV.L       R14,@-R15
    00000EA8 D82E                   MOV.L       L195+14,R8 ; __shard64
    00000EAA 480B                   JSR         @R8
    00000EAC E10A                   MOV         #10,R1     ; H'0000000A
    00000EAE 7F0C                   ADD         #12,R15
    00000EB0 61F6                   MOV.L       @R15+,R1
    00000EB2 6EF6                   MOV.L       @R15+,R14
    00000EB4 7FF0                   ADD         #-16,R15
    00000EB6 70FC                   ADD         #-4,R0
    00000EB8 01FE                   MOV.L       @(R0,R15),R1
    00000EBA 65F3                   MOV         R15,R5
    00000EBC 3A1D                   DMULS.L     R1,R10
    00000EBE 7508                   ADD         #8,R5
    00000EC0 020A                   STS         MACH,R2
    00000EC2 041A                   STS         MACL,R4
    00000EC4 2F22                   MOV.L       R2,@R15
    00000EC6 1F41                   MOV.L       R4,@(4,R15)
    00000EC8 2F56                   MOV.L       R5,@-R15
    00000ECA 480B                   JSR         @R8
    00000ECC E10A                   MOV         #10,R1     ; H'0000000A
    00000ECE 7F0C                   ADD         #12,R15
    00000ED0 67F6                   MOV.L       @R15+,R7
    00000ED2 67F6                   MOV.L       @R15+,R7
    00000ED4 3E78                   SUB         R7,R14
    00000ED6 4E11                   CMP/PZ      R14
    00000ED8 8B2B                   BF          L112
    00000EDA 7FF0                   ADD         #-16,R15
    00000EDC E001                   MOV         #1,R0      ; H'00000001
    00000EDE 4018                   SHLL8       R0
    00000EE0 01FE                   MOV.L       @(R0,R15),R1
    00000EE2 3A1D                   DMULS.L     R1,R10
    00000EE4 051A                   STS         MACL,R5
    00000EE6 1F51                   MOV.L       R5,@(4,R15)
    00000EE8 65F3                   MOV         R15,R5
    00000EEA 040A                   STS         MACH,R4
    00000EEC 7508                   ADD         #8,R5
    00000EEE 2F42                   MOV.L       R4,@R15
    00000EF0 2F56                   MOV.L       R5,@-R15
    00000EF2 D81C                   MOV.L       L195+14,R8 ; __shard64
    00000EF4 480B                   JSR         @R8
    00000EF6 E10A                   MOV         #10,R1     ; H'0000000A
    00000EF8 7F0C                   ADD         #12,R15
    00000EFA 66F6                   MOV.L       @R15+,R6
    00000EFC 6CF6                   MOV.L       @R15+,R12
    00000EFE 7FF0                   ADD         #-16,R15
    00000F00 7004                   ADD         #4,R0
    00000F02 06FE                   MOV.L       @(R0,R15),R6
    00000F04 64F3                   MOV         R15,R4
    00000F06 3B6D                   DMULS.L     R6,R11
    00000F08 7408                   ADD         #8,R4
    00000F0A 020A                   STS         MACH,R2
    00000F0C 071A                   STS         MACL,R7
    00000F0E 2F22                   MOV.L       R2,@R15
    00000F10 1F71                   MOV.L       R7,@(4,R15)
    00000F12 2F46                   MOV.L       R4,@-R15
    00000F14 480B                   JSR         @R8
    00000F16 E10A                   MOV         #10,R1     ; H'0000000A
    00000F18 7F0C                   ADD         #12,R15
    00000F1A 62F6                   MOV.L       @R15+,R2
    00000F1C 62F6                   MOV.L       @R15+,R2
    00000F1E 3C28                   SUB         R2,R12
    00000F20 4C11                   CMP/PZ      R12
    00000F22 8B06                   BF          L112
    00000F24 E0FC                   MOV         #-4,R0     ; H'FFFFFFFC
    00000F26 600C                   EXTU.B      R0,R0
    00000F28 62E3                   MOV         R14,R2
    00000F2A 06FE                   MOV.L       @(R0,R15),R6
    00000F2C 32CC                   ADD         R12,R2
    00000F2E 3263                   CMP/GE      R6,R2
    00000F30 8B0D                   BF          L115
    00000F32              L112:
    00000F32 E0EC                   MOV         #-20,R0    ; H'FFFFFFEC
    00000F34 600C                   EXTU.B      R0,R0
    00000F36 02FE                   MOV.L       @(R0,R15),R2
    00000F38 70F8                   ADD         #-8,R0
    00000F3A 08FE                   MOV.L       @(R0,R15),R8
    00000F3C 7901                   ADD         #1,R9
    00000F3E 3987                   CMP/GT      R8,R9
    00000F40 3B2C                   ADD         R2,R11
    00000F42 8FA5                   BF/S        L111
    00000F44 3ADC                   ADD         R13,R10
    00000F46 E0CC                   MOV         #-52,R0    ; H'FFFFFFCC
    00000F48 600C                   EXTU.B      R0,R0
    00000F4A A621                   BRA         L110
    00000F4C 0DFE                   MOV.L       @(R0,R15),R13
    00000F4E              L115:
    00000F4E E0CC                   MOV         #-52,R0    ; H'FFFFFFCC
    00000F50 600C                   EXTU.B      R0,R0
    00000F52 A135                   BRA         L117
    00000F54 0DFE                   MOV.L       @(R0,R15),R13
    00000F56              L195:
    00000F56 00000002               .RES.W      1
    00000F58 <00000000>             .DATA.L     _ivec3f
    00000F5C <00000000>             .DATA.L     _subvv
    00000F60 <00000000>             .DATA.L     _divvi
    00000F64 <00000000>             .DATA.L     __shard64
    00000F68              L108:
            graphic.c        259    
            graphic.c        260                                  for (xiter = box[0]; xiter <= box[2]; xiter += 1, dot02 += v0x_sc, dot12 += v1x_sc) {                           
    00000F68 3987                   CMP/GT      R8,R9
    00000F6A 8B01                   BF          L221
    00000F6C A0C8                   BRA         L119
    00000F6E 0009                   NOP
    00000F70              L221:
    00000F70 E0C4                   MOV         #-60,R0    ; H'FFFFFFC4
    00000F72 600C                   EXTU.B      R0,R0
    00000F74 0FD6                   MOV.L       R13,@(R0,R15)
    00000F76 7004                   ADD         #4,R0
    00000F78 0DFE                   MOV.L       @(R0,R15),R13
    00000F7A              L120:
    00000F7A 7FF0                   ADD         #-16,R15
    00000F7C E042                   MOV         #66,R0     ; H'00000042
    00000F7E 4008                   SHLL2       R0
    00000F80 0CFE                   MOV.L       @(R0,R15),R12
    00000F82 3BCD                   DMULS.L     R12,R11
    00000F84 051A                   STS         MACL,R5
    00000F86 1F51                   MOV.L       R5,@(4,R15)
    00000F88 65F3                   MOV         R15,R5
    00000F8A 040A                   STS         MACH,R4
    00000F8C 7508                   ADD         #8,R5
    00000F8E 2F42                   MOV.L       R4,@R15
    00000F90 2F56                   MOV.L       R5,@-R15
    00000F92 DE5A                   MOV.L       L196,R14   ; __shard64
    00000F94 4E0B                   JSR         @R14
    00000F96 E10A                   MOV         #10,R1     ; H'0000000A
    00000F98 7F0C                   ADD         #12,R15
    00000F9A 66F6                   MOV.L       @R15+,R6
    00000F9C 64F6                   MOV.L       @R15+,R4
    00000F9E 7FF0                   ADD         #-16,R15
    00000FA0 70FC                   ADD         #-4,R0
    00000FA2 06FE                   MOV.L       @(R0,R15),R6
    00000FA4 3A6D                   DMULS.L     R6,R10
    00000FA6 0C0A                   STS         MACH,R12
    00000FA8 2FC2                   MOV.L       R12,@R15
    00000FAA 6CF3                   MOV         R15,R12
    00000FAC 071A                   STS         MACL,R7
    00000FAE 7C08                   ADD         #8,R12
    00000FB0 1F71                   MOV.L       R7,@(4,R15)
    00000FB2 2FC6                   MOV.L       R12,@-R15
    00000FB4 4E0B                   JSR         @R14
    00000FB6 E10A                   MOV         #10,R1     ; H'0000000A
    00000FB8 7F0C                   ADD         #12,R15
    00000FBA 62F6                   MOV.L       @R15+,R2
    00000FBC 62F6                   MOV.L       @R15+,R2
    00000FBE 3428                   SUB         R2,R4
    00000FC0 4411                   CMP/PZ      R4
    00000FC2 8F2D                   BF/S        L121
    00000FC4 6E43                   MOV         R4,R14
    00000FC6 7FF0                   ADD         #-16,R15
    00000FC8 E001                   MOV         #1,R0      ; H'00000001
    00000FCA 4018                   SHLL8       R0
    00000FCC 01FE                   MOV.L       @(R0,R15),R1
    00000FCE 3A1D                   DMULS.L     R1,R10
    00000FD0 050A                   STS         MACH,R5
    00000FD2 2F52                   MOV.L       R5,@R15
    00000FD4 65F3                   MOV         R15,R5
    00000FD6 041A                   STS         MACL,R4
    00000FD8 7508                   ADD         #8,R5
    00000FDA 1F41                   MOV.L       R4,@(4,R15)
    00000FDC 2F56                   MOV.L       R5,@-R15
    00000FDE DC47                   MOV.L       L196,R12   ; __shard64
    00000FE0 4C0B                   JSR         @R12
    00000FE2 E10A                   MOV         #10,R1     ; H'0000000A
    00000FE4 7F0C                   ADD         #12,R15
    00000FE6 66F6                   MOV.L       @R15+,R6
    00000FE8 65F6                   MOV.L       @R15+,R5
    00000FEA 7FF0                   ADD         #-16,R15
    00000FEC 7004                   ADD         #4,R0
    00000FEE 06FE                   MOV.L       @(R0,R15),R6
    00000FF0 64F3                   MOV         R15,R4
    00000FF2 3B6D                   DMULS.L     R6,R11
    00000FF4 7408                   ADD         #8,R4
    00000FF6 020A                   STS         MACH,R2
    00000FF8 071A                   STS         MACL,R7
    00000FFA 2F22                   MOV.L       R2,@R15
    00000FFC 1F71                   MOV.L       R7,@(4,R15)
    00000FFE 2F46                   MOV.L       R4,@-R15
    00001000 4C0B                   JSR         @R12
    00001002 E10A                   MOV         #10,R1     ; H'0000000A
    00001004 7F0C                   ADD         #12,R15
    00001006 62F6                   MOV.L       @R15+,R2
    00001008 62F6                   MOV.L       @R15+,R2
    0000100A 3528                   SUB         R2,R5
    0000100C 4511                   CMP/PZ      R5
    0000100E 8F07                   BF/S        L121
    00001010 6C53                   MOV         R5,R12
    00001012 E0FC                   MOV         #-4,R0     ; H'FFFFFFFC
    00001014 600C                   EXTU.B      R0,R0
    00001016 62E3                   MOV         R14,R2
    00001018 06FE                   MOV.L       @(R0,R15),R6
    0000101A 32CC                   ADD         R12,R2
    0000101C 3263                   CMP/GE      R6,R2
    0000101E 8B69                   BF          L124
    00001020              L121:
    00001020 E0EC                   MOV         #-20,R0    ; H'FFFFFFEC
    00001022 600C                   EXTU.B      R0,R0
    00001024 04FE                   MOV.L       @(R0,R15),R4
    00001026 3ADC                   ADD         R13,R10
    00001028 3B4C                   ADD         R4,R11
            graphic.c        261                                          u = mulff(dot11, dot02) - mulff(dot01, dot12);
    0000102A 7FF0                   ADD         #-16,R15
    0000102C 701C                   ADD         #28,R0
    0000102E 0CFE                   MOV.L       @(R0,R15),R12
    00001030 66F3                   MOV         R15,R6
    00001032 3BCD                   DMULS.L     R12,R11
    00001034 7608                   ADD         #8,R6
    00001036 050A                   STS         MACH,R5
    00001038 071A                   STS         MACL,R7
    0000103A 2F52                   MOV.L       R5,@R15
    0000103C 1F71                   MOV.L       R7,@(4,R15)
    0000103E 2F66                   MOV.L       R6,@-R15
    00001040 DE2E                   MOV.L       L196,R14   ; __shard64
    00001042 4E0B                   JSR         @R14
    00001044 E10A                   MOV         #10,R1     ; H'0000000A
    00001046 7F0C                   ADD         #12,R15
    00001048 67F6                   MOV.L       @R15+,R7
    0000104A 65F6                   MOV.L       @R15+,R5
    0000104C 7FF0                   ADD         #-16,R15
    0000104E 70FC                   ADD         #-4,R0
    00001050 07FE                   MOV.L       @(R0,R15),R7
    00001052 64F3                   MOV         R15,R4
    00001054 3A7D                   DMULS.L     R7,R10
    00001056 7408                   ADD         #8,R4
    00001058 0C0A                   STS         MACH,R12
    0000105A 021A                   STS         MACL,R2
    0000105C 2FC2                   MOV.L       R12,@R15
    0000105E 1F21                   MOV.L       R2,@(4,R15)
    00001060 2F46                   MOV.L       R4,@-R15
    00001062 4E0B                   JSR         @R14
    00001064 E10A                   MOV         #10,R1     ; H'0000000A
    00001066 7F0C                   ADD         #12,R15
    00001068 62F6                   MOV.L       @R15+,R2
    0000106A 62F6                   MOV.L       @R15+,R2
    0000106C 3528                   SUB         R2,R5
            graphic.c        262                                          if (u < 0) continue;    
    0000106E 4511                   CMP/PZ      R5
    00001070 8F2D                   BF/S        L125
    00001072 6E53                   MOV         R5,R14
            graphic.c        263                                  
            graphic.c        264                                          v = mulff(dot00, dot12) - mulff(dot01, dot02);                          
    00001074 7FF0                   ADD         #-16,R15
    00001076 E001                   MOV         #1,R0      ; H'00000001
    00001078 4018                   SHLL8       R0
    0000107A 01FE                   MOV.L       @(R0,R15),R1
    0000107C 3A1D                   DMULS.L     R1,R10
    0000107E 050A                   STS         MACH,R5
    00001080 2F52                   MOV.L       R5,@R15
    00001082 65F3                   MOV         R15,R5
    00001084 041A                   STS         MACL,R4
    00001086 7508                   ADD         #8,R5
    00001088 1F41                   MOV.L       R4,@(4,R15)
    0000108A 2F56                   MOV.L       R5,@-R15
    0000108C DC1B                   MOV.L       L196,R12   ; __shard64
    0000108E 4C0B                   JSR         @R12
    00001090 E10A                   MOV         #10,R1     ; H'0000000A
    00001092 7F0C                   ADD         #12,R15
    00001094 66F6                   MOV.L       @R15+,R6
    00001096 65F6                   MOV.L       @R15+,R5
    00001098 7FF0                   ADD         #-16,R15
    0000109A 7004                   ADD         #4,R0
    0000109C 06FE                   MOV.L       @(R0,R15),R6
    0000109E 64F3                   MOV         R15,R4
    000010A0 3B6D                   DMULS.L     R6,R11
    000010A2 7408                   ADD         #8,R4
    000010A4 020A                   STS         MACH,R2
    000010A6 071A                   STS         MACL,R7
    000010A8 2F22                   MOV.L       R2,@R15
    000010AA 1F71                   MOV.L       R7,@(4,R15)
    000010AC 2F46                   MOV.L       R4,@-R15
    000010AE 4C0B                   JSR         @R12
    000010B0 E10A                   MOV         #10,R1     ; H'0000000A
    000010B2 7F0C                   ADD         #12,R15
    000010B4 62F6                   MOV.L       @R15+,R2
    000010B6 62F6                   MOV.L       @R15+,R2
    000010B8 3528                   SUB         R2,R5
            graphic.c        265                                          if (v < 0) continue;
    000010BA 4511                   CMP/PZ      R5
    000010BC 8F07                   BF/S        L125
    000010BE 6C53                   MOV         R5,R12
    000010C0 E0FC                   MOV         #-4,R0     ; H'FFFFFFFC
    000010C2 600C                   EXTU.B      R0,R0
            graphic.c        266                                          
            graphic.c        267                                          if(u + v >= denom) continue;
    000010C4 62E3                   MOV         R14,R2
    000010C6 06FE                   MOV.L       @(R0,R15),R6
    000010C8 32CC                   ADD         R12,R2
    000010CA 3263                   CMP/GE      R6,R2
    000010CC 8B0D                   BF          L128
    000010CE              L125:
    000010CE 7902                   ADD         #2,R9
    000010D0 E0EC                   MOV         #-20,R0    ; H'FFFFFFEC
    000010D2 600C                   EXTU.B      R0,R0
    000010D4 3987                   CMP/GT      R8,R9
    000010D6 02FE                   MOV.L       @(R0,R15),R2
    000010D8 3ADC                   ADD         R13,R10
    000010DA 8D02                   BT/S        L222
    000010DC 3B2C                   ADD         R2,R11
    000010DE AF4C                   BRA         L120
    000010E0 0009                   NOP
    000010E2              L222:
    000010E2 E0C4                   MOV         #-60,R0    ; H'FFFFFFC4
    000010E4 600C                   EXTU.B      R0,R0
    000010E6 A00B                   BRA         L119
    000010E8 0DFE                   MOV.L       @(R0,R15),R13
    000010EA              L128:
    000010EA E0C4                   MOV         #-60,R0    ; H'FFFFFFC4
    000010EC 600C                   EXTU.B      R0,R0
    000010EE 0DFE                   MOV.L       @(R0,R15),R13
    000010F0 A066                   BRA         L117
    000010F2 7901                   ADD         #1,R9
    000010F4              L124:
    000010F4 E0C4                   MOV         #-60,R0    ; H'FFFFFFC4
    000010F6 600C                   EXTU.B      R0,R0
    000010F8 A062                   BRA         L117
    000010FA 0DFE                   MOV.L       @(R0,R15),R13
    000010FC              L196:
    000010FC <00000000>             .DATA.L     __shard64
    00001100              L119:
    00001100 E0E4                   MOV         #-28,R0    ; H'FFFFFFE4
    00001102 600C                   EXTU.B      R0,R0
    00001104 08FE                   MOV.L       @(R0,R15),R8
    00001106 3987                   CMP/GT      R8,R9
    00001108 8B01                   BF          L223
    0000110A A541                   BRA         L110
    0000110C 0009                   NOP
    0000110E              L223:
    0000110E 7FF0                   ADD         #-16,R15
    00001110 E042                   MOV         #66,R0     ; H'00000042
    00001112 4008                   SHLL2       R0
    00001114 0CFE                   MOV.L       @(R0,R15),R12
    00001116 3BCD                   DMULS.L     R12,R11
    00001118 051A                   STS         MACL,R5
    0000111A 1F51                   MOV.L       R5,@(4,R15)
    0000111C 65F3                   MOV         R15,R5
    0000111E 040A                   STS         MACH,R4
    00001120 7508                   ADD         #8,R5
    00001122 2F42                   MOV.L       R4,@R15
    00001124 2F56                   MOV.L       R5,@-R15
    00001126 DED3                   MOV.L       L198+2,R14 ; __shard64
    00001128 4E0B                   JSR         @R14
    0000112A E10A                   MOV         #10,R1     ; H'0000000A
    0000112C 7F0C                   ADD         #12,R15
    0000112E 66F6                   MOV.L       @R15+,R6
    00001130 62F6                   MOV.L       @R15+,R2
    00001132 7FF0                   ADD         #-16,R15
    00001134 70FC                   ADD         #-4,R0
    00001136 06FE                   MOV.L       @(R0,R15),R6
    00001138 3A6D                   DMULS.L     R6,R10
    0000113A 080A                   STS         MACH,R8
    0000113C 2F82                   MOV.L       R8,@R15
    0000113E 68F3                   MOV         R15,R8
    00001140 071A                   STS         MACL,R7
    00001142 7808                   ADD         #8,R8
    00001144 1F71                   MOV.L       R7,@(4,R15)
    00001146 2F86                   MOV.L       R8,@-R15
    00001148 4E0B                   JSR         @R14
    0000114A E10A                   MOV         #10,R1     ; H'0000000A
    0000114C 7F0C                   ADD         #12,R15
    0000114E 6CF6                   MOV.L       @R15+,R12
    00001150 6CF6                   MOV.L       @R15+,R12
    00001152 32C8                   SUB         R12,R2
    00001154 4211                   CMP/PZ      R2
    00001156 8D02                   BT/S        L224
    00001158 6E23                   MOV         R2,R14
    0000115A A519                   BRA         L110
    0000115C 0009                   NOP
    0000115E              L224:
    0000115E 7FF0                   ADD         #-16,R15
    00001160 E001                   MOV         #1,R0      ; H'00000001
    00001162 4018                   SHLL8       R0
    00001164 01FE                   MOV.L       @(R0,R15),R1
    00001166 65F3                   MOV         R15,R5
    00001168 3A1D                   DMULS.L     R1,R10
    0000116A 7508                   ADD         #8,R5
    0000116C 040A                   STS         MACH,R4
    0000116E 0C1A                   STS         MACL,R12
    00001170 2F42                   MOV.L       R4,@R15
    00001172 1FC1                   MOV.L       R12,@(4,R15)
    00001174 2F56                   MOV.L       R5,@-R15
    00001176 DCBF                   MOV.L       L198+2,R12 ; __shard64
    00001178 4C0B                   JSR         @R12
    0000117A E10A                   MOV         #10,R1     ; H'0000000A
    0000117C 7F0C                   ADD         #12,R15
    0000117E 66F6                   MOV.L       @R15+,R6
    00001180 6AF6                   MOV.L       @R15+,R10
    00001182 7FF0                   ADD         #-16,R15
    00001184 7004                   ADD         #4,R0
    00001186 06FE                   MOV.L       @(R0,R15),R6
    00001188 68F3                   MOV         R15,R8
    0000118A 3B6D                   DMULS.L     R6,R11
    0000118C 7808                   ADD         #8,R8
    0000118E 070A                   STS         MACH,R7
    00001190 021A                   STS         MACL,R2
    00001192 2F72                   MOV.L       R7,@R15
    00001194 1F21                   MOV.L       R2,@(4,R15)
    00001196 2F86                   MOV.L       R8,@-R15
    00001198 4C0B                   JSR         @R12
    0000119A E10A                   MOV         #10,R1     ; H'0000000A
    0000119C 7F0C                   ADD         #12,R15
    0000119E 62F6                   MOV.L       @R15+,R2
    000011A0 62F6                   MOV.L       @R15+,R2
    000011A2 3A28                   SUB         R2,R10
    000011A4 4A11                   CMP/PZ      R10
    000011A6 8D02                   BT/S        L225
    000011A8 6CA3                   MOV         R10,R12
    000011AA A4F1                   BRA         L110
    000011AC 0009                   NOP
    000011AE              L225:
    000011AE E0FC                   MOV         #-4,R0     ; H'FFFFFFFC
    000011B0 600C                   EXTU.B      R0,R0
    000011B2 62E3                   MOV         R14,R2
    000011B4 06FE                   MOV.L       @(R0,R15),R6
    000011B6 32CC                   ADD         R12,R2
    000011B8 3263                   CMP/GE      R6,R2
    000011BA 8B01                   BF          L226
    000011BC A4E8                   BRA         L110
    000011BE 0009                   NOP
    000011C0              L226:
    000011C0              L117:
            graphic.c        268    
            graphic.c        269                                          found = 1;
            graphic.c        270                                  
            graphic.c        271                                          u = divff(u, denom);
    000011C0 E0FC                   MOV         #-4,R0     ; H'FFFFFFFC
    000011C2 600C                   EXTU.B      R0,R0
    000011C4 08FE                   MOV.L       @(R0,R15),R8
    000011C6 6283                   MOV         R8,R2
    000011C8 4200                   SHLL        R2
    000011CA 366A                   SUBC        R6,R6
    000011CC E7A4                   MOV         #-92,R7    ; H'FFFFFFA4
    000011CE 677C                   EXTU.B      R7,R7
    000011D0 64F3                   MOV         R15,R4
    000011D2 347C                   ADD         R7,R4
    000011D4 2462                   MOV.L       R6,@R4
    000011D6 1481                   MOV.L       R8,@(4,R4)
    000011D8 7FF8                   ADD         #-8,R15
    000011DA E5AC                   MOV         #-84,R5    ; H'FFFFFFAC
    000011DC 655C                   EXTU.B      R5,R5
    000011DE 67F3                   MOV         R15,R7
    000011E0 375C                   ADD         R5,R7
    000011E2 5871                   MOV.L       @(4,R7),R8
    000011E4 6472                   MOV.L       @R7,R4
    000011E6 2F86                   MOV.L       R8,@-R15
    000011E8 2F46                   MOV.L       R4,@-R15
    000011EA 7FF0                   ADD         #-16,R15
    000011EC 62E3                   MOV         R14,R2
    000011EE 4200                   SHLL        R2
    000011F0 322A                   SUBC        R2,R2
    000011F2 68F3                   MOV         R15,R8
    000011F4 7808                   ADD         #8,R8
    000011F6 2F22                   MOV.L       R2,@R15
    000011F8 1FE1                   MOV.L       R14,@(4,R15)
    000011FA 2F86                   MOV.L       R8,@-R15
    000011FC DB9E                   MOV.L       L198+6,R11 ; __shlld64
    000011FE 4B0B                   JSR         @R11
    00001200 E10A                   MOV         #10,R1     ; H'0000000A
    00001202 7F0C                   ADD         #12,R15
    00001204 6AF3                   MOV         R15,R10
    00001206 7A10                   ADD         #16,R10
    00001208 DE9C                   MOV.L       L198+10,R14; __div64s
    0000120A 4E0B                   JSR         @R14
    0000120C 2FA6                   MOV.L       R10,@-R15
    0000120E 7F14                   ADD         #20,R15
    00001210 61F6                   MOV.L       @R15+,R1
    00001212 64F6                   MOV.L       @R15+,R4
            graphic.c        272                                          v = divff(v, denom);                                    
    00001214 7FF8                   ADD         #-8,R15
    00001216 EAAC                   MOV         #-84,R10   ; H'FFFFFFAC
    00001218 6AAC                   EXTU.B      R10,R10
    0000121A 61F3                   MOV         R15,R1
    0000121C 31AC                   ADD         R10,R1
    0000121E 5211                   MOV.L       @(4,R1),R2
    00001220 6512                   MOV.L       @R1,R5
    00001222 2F26                   MOV.L       R2,@-R15
    00001224 2F56                   MOV.L       R5,@-R15
    00001226 7FF0                   ADD         #-16,R15
    00001228 62C3                   MOV         R12,R2
    0000122A 4200                   SHLL        R2
    0000122C 322A                   SUBC        R2,R2
    0000122E 65F3                   MOV         R15,R5
    00001230 7508                   ADD         #8,R5
    00001232 2F22                   MOV.L       R2,@R15
    00001234 1FC1                   MOV.L       R12,@(4,R15)
    00001236 2F56                   MOV.L       R5,@-R15
    00001238 4B0B                   JSR         @R11
    0000123A E10A                   MOV         #10,R1     ; H'0000000A
    0000123C 7F0C                   ADD         #12,R15
    0000123E 66F3                   MOV         R15,R6
    00001240 7610                   ADD         #16,R6
    00001242 4E0B                   JSR         @R14
    00001244 2F66                   MOV.L       R6,@-R15
    00001246 7F14                   ADD         #20,R15
    00001248 67F6                   MOV.L       @R15+,R7
    0000124A 65F6                   MOV.L       @R15+,R5
            graphic.c        273    
            graphic.c        274                                          ozp = mulff(ozb, v) + mulff(ozc, u) + mulff(oza, int2f(1) - u - v);     
    0000124C 7FF0                   ADD         #-16,R15
    0000124E 7018                   ADD         #24,R0
    00001250 0EFE                   MOV.L       @(R0,R15),R14
    00001252 35ED                   DMULS.L     R14,R5
    00001254 080A                   STS         MACH,R8
    00001256 2F82                   MOV.L       R8,@R15
    00001258 68F3                   MOV         R15,R8
    0000125A 071A                   STS         MACL,R7
    0000125C 7808                   ADD         #8,R8
    0000125E 1F71                   MOV.L       R7,@(4,R15)
    00001260 2F86                   MOV.L       R8,@-R15
    00001262 DE84                   MOV.L       L198+2,R14 ; __shard64
    00001264 4E0B                   JSR         @R14
    00001266 E10A                   MOV         #10,R1     ; H'0000000A
    00001268 7F0C                   ADD         #12,R15
    0000126A 6AF6                   MOV.L       @R15+,R10
    0000126C 6CF6                   MOV.L       @R15+,R12
    0000126E 7FF0                   ADD         #-16,R15
    00001270 7004                   ADD         #4,R0
    00001272 0BFE                   MOV.L       @(R0,R15),R11
    00001274 34BD                   DMULS.L     R11,R4
    00001276 0B0A                   STS         MACH,R11
    00001278 2FB2                   MOV.L       R11,@R15
    0000127A 6BF3                   MOV         R15,R11
    0000127C 0A1A                   STS         MACL,R10
    0000127E 7B08                   ADD         #8,R11
    00001280 1FA1                   MOV.L       R10,@(4,R15)
    00001282 2FB6                   MOV.L       R11,@-R15
    00001284 4E0B                   JSR         @R14
    00001286 E10A                   MOV         #10,R1     ; H'0000000A
    00001288 7F0C                   ADD         #12,R15
    0000128A 61F6                   MOV.L       @R15+,R1
    0000128C 61F6                   MOV.L       @R15+,R1
    0000128E 3C1C                   ADD         R1,R12
    00001290 7FF0                   ADD         #-16,R15
    00001292 E704                   MOV         #4,R7      ; H'00000004
    00001294 4718                   SHLL8       R7
    00001296 7018                   ADD         #24,R0
    00001298 0F76                   MOV.L       R7,@(R0,R15)
    0000129A 70E0                   ADD         #-32,R0
    0000129C 3748                   SUB         R4,R7
    0000129E 0AFE                   MOV.L       @(R0,R15),R10
    000012A0 3758                   SUB         R5,R7
    000012A2 3A7D                   DMULS.L     R7,R10
    000012A4 6AF3                   MOV         R15,R10
    000012A6 7A08                   ADD         #8,R10
    000012A8 060A                   STS         MACH,R6
    000012AA 081A                   STS         MACL,R8
    000012AC 2F62                   MOV.L       R6,@R15
    000012AE 1F81                   MOV.L       R8,@(4,R15)
    000012B0 2FA6                   MOV.L       R10,@-R15
    000012B2 4E0B                   JSR         @R14
    000012B4 E10A                   MOV         #10,R1     ; H'0000000A
    000012B6 7F0C                   ADD         #12,R15
    000012B8 6BF6                   MOV.L       @R15+,R11
    000012BA 6BF6                   MOV.L       @R15+,R11
    000012BC 700C                   ADD         #12,R0
    000012BE 3CBC                   ADD         R11,R12
    000012C0 0FC6                   MOV.L       R12,@(R0,R15)
            graphic.c        275                                          uzp = mulff(uzc, u); //mulff(uzb, v) + mulff(uzc, u) + mulff(uza, int2f(1) - u - v);
    000012C2 7FF0                   ADD         #-16,R15
    000012C4 7004                   ADD         #4,R0
    000012C6 0CFE                   MOV.L       @(R0,R15),R12
    000012C8 34CD                   DMULS.L     R12,R4
    000012CA 64F3                   MOV         R15,R4
    000012CC 7408                   ADD         #8,R4
    000012CE 010A                   STS         MACH,R1
    000012D0 0C1A                   STS         MACL,R12
    000012D2 2F12                   MOV.L       R1,@R15
    000012D4 1FC1                   MOV.L       R12,@(4,R15)
    000012D6 2F46                   MOV.L       R4,@-R15
    000012D8 4E0B                   JSR         @R14
    000012DA E10A                   MOV         #10,R1     ; H'0000000A
    000012DC 7F0C                   ADD         #12,R15
    000012DE 67F6                   MOV.L       @R15+,R7
    000012E0 7008                   ADD         #8,R0
    000012E2 67F2                   MOV.L       @R15,R7
    000012E4 0F76                   MOV.L       R7,@(R0,R15)
    000012E6 7FF4                   ADD         #-12,R15
            graphic.c        276                                          vzp = mulff(vzb, v); //mulff(vzb, v); + mulff(vzc, u) + mulff(vza, int2f(1) - u - v);   
    000012E8 70F4                   ADD         #-12,R0
    000012EA 08FE                   MOV.L       @(R0,R15),R8
    000012EC 6BF3                   MOV         R15,R11
    000012EE 358D                   DMULS.L     R8,R5
    000012F0 7B08                   ADD         #8,R11
    000012F2 060A                   STS         MACH,R6
    000012F4 0A1A                   STS         MACL,R10
    000012F6 2F62                   MOV.L       R6,@R15
    000012F8 1FA1                   MOV.L       R10,@(4,R15)
    000012FA 2FB6                   MOV.L       R11,@-R15
    000012FC 4E0B                   JSR         @R14
    000012FE E10A                   MOV         #10,R1     ; H'0000000A
    00001300 7F0C                   ADD         #12,R15
    00001302 6CF6                   MOV.L       @R15+,R12
    00001304 7010                   ADD         #16,R0
    00001306 6CF2                   MOV.L       @R15,R12
    00001308 0FC6                   MOV.L       R12,@(R0,R15)
    0000130A 7F04                   ADD         #4,R15
            graphic.c        277    
            graphic.c        278                                          minx = xiter;
            graphic.c        279                                          break;
            graphic.c        280                                  }       
            graphic.c        281                                  if (found != 1) continue;
            graphic.c        282                                  found = 0;
            graphic.c        283    
            graphic.c        284                                  if (minx >= 128) continue;
    0000130C EE80                   MOV         #-128,R14  ; H'FFFFFF80
    0000130E 6EEC                   EXTU.B      R14,R14
    00001310 39E3                   CMP/GE      R14,R9
    00001312 8F02                   BF/S        L227
    00001314 0F96                   MOV.L       R9,@(R0,R15); minx
    00001316 A43B                   BRA         L104
    00001318 0009                   NOP
    0000131A              L227:
            graphic.c        285    
            graphic.c        286                                  v2 = divvi(subvv(ivec3f(int2f(box[2]), int2f(yiter), 0), a), OF_SC);
    0000131A 7FE8                   ADD         #-24,R15
    0000131C 64F3                   MOV         R15,R4
    0000131E 744C                   ADD         #76,R4
    00001320 6942                   MOV.L       @R4,R9     ; (part of)a
    00001322 5541                   MOV.L       @(4,R4),R5 ; (part of)a
    00001324 5A42                   MOV.L       @(8,R4),R10; (part of)a
    00001326 2F92                   MOV.L       R9,@R15
    00001328 1F51                   MOV.L       R5,@(4,R15)
    0000132A 1FA2                   MOV.L       R10,@(8,R15)
    0000132C 7FF4                   ADD         #-12,R15
    0000132E E042                   MOV         #66,R0     ; H'00000042
    00001330 4008                   SHLL2       R0
    00001332 09FE                   MOV.L       @(R0,R15),R9
    00001334 6BF3                   MOV         R15,R11
    00001336 6493                   MOV         R9,R4
    00001338 4418                   SHLL8       R4
    0000133A 4408                   SHLL2       R4
    0000133C 2FB6                   MOV.L       R11,@-R15
    0000133E 7038                   ADD         #56,R0
    00001340 D84F                   MOV.L       L198+14,R8 ; _ivec3f
    00001342 05FE                   MOV.L       @(R0,R15),R5
    00001344 480B                   JSR         @R8
    00001346 E600                   MOV         #0,R6      ; H'00000000
    00001348 7F04                   ADD         #4,R15
    0000134A 6CF3                   MOV         R15,R12
    0000134C 7C18                   ADD         #24,R12
    0000134E DA4D                   MOV.L       L198+18,R10; _subvv
    00001350 4A0B                   JSR         @R10
    00001352 2FC6                   MOV.L       R12,@-R15
    00001354 7F1C                   ADD         #28,R15
    00001356 E7A4                   MOV         #-92,R7    ; H'FFFFFFA4
    00001358 677C                   EXTU.B      R7,R7
    0000135A 6EF3                   MOV         R15,R14
    0000135C 3E7C                   ADD         R7,R14
    0000135E 2FE6                   MOV.L       R14,@-R15
    00001360 DE49                   MOV.L       L198+22,R14; _divvi
    00001362 4E0B                   JSR         @R14
    00001364 E406                   MOV         #6,R4      ; H'00000006
            graphic.c        287                                  dot02 = dotp(v0, v2);
    00001366 E088                   MOV         #-120,R0   ; H'FFFFFF88
    00001368 600C                   EXTU.B      R0,R0
    0000136A 0EFE                   MOV.L       @(R0,R15),R14; v0.x
    0000136C 7020                   ADD         #32,R0
    0000136E 01FE                   MOV.L       @(R0,R15),R1; v2.x
    00001370 65F3                   MOV         R15,R5
    00001372 31ED                   DMULS.L     R14,R1
    00001374 7508                   ADD         #8,R5
    00001376 040A                   STS         MACH,R4
    00001378 081A                   STS         MACL,R8
    0000137A 2F42                   MOV.L       R4,@R15
    0000137C 1F81                   MOV.L       R8,@(4,R15)
    0000137E 2F56                   MOV.L       R5,@-R15
    00001380 DE3C                   MOV.L       L198+2,R14 ; __shard64
    00001382 4E0B                   JSR         @R14
    00001384 E10A                   MOV         #10,R1     ; H'0000000A
    00001386 7F0C                   ADD         #12,R15
    00001388 67F6                   MOV.L       @R15+,R7
    0000138A 65F6                   MOV.L       @R15+,R5
    0000138C 7FF0                   ADD         #-16,R15
    0000138E 70E4                   ADD         #-28,R0
    00001390 0AFE                   MOV.L       @(R0,R15),R10; v0.y
    00001392 7020                   ADD         #32,R0
    00001394 07FE                   MOV.L       @(R0,R15),R7; v2.y
    00001396 37AD                   DMULS.L     R10,R7
    00001398 6AF3                   MOV         R15,R10
    0000139A 7A08                   ADD         #8,R10
    0000139C 080A                   STS         MACH,R8
    0000139E 0B1A                   STS         MACL,R11
    000013A0 2F82                   MOV.L       R8,@R15
    000013A2 1FB1                   MOV.L       R11,@(4,R15)
    000013A4 2FA6                   MOV.L       R10,@-R15
    000013A6 4E0B                   JSR         @R14
    000013A8 E10A                   MOV         #10,R1     ; H'0000000A
    000013AA 7F0C                   ADD         #12,R15
    000013AC 6BF6                   MOV.L       @R15+,R11
    000013AE 6BF6                   MOV.L       @R15+,R11
    000013B0 35BC                   ADD         R11,R5
    000013B2 7FF0                   ADD         #-16,R15
    000013B4 70E4                   ADD         #-28,R0
    000013B6 0AFE                   MOV.L       @(R0,R15),R10; v0.z
    000013B8 7020                   ADD         #32,R0
    000013BA 02FE                   MOV.L       @(R0,R15),R2; v2.z
    000013BC 61F3                   MOV         R15,R1
    000013BE 32AD                   DMULS.L     R10,R2
    000013C0 7108                   ADD         #8,R1
    000013C2 040A                   STS         MACH,R4
    000013C4 0C1A                   STS         MACL,R12
    000013C6 2F42                   MOV.L       R4,@R15
    000013C8 1FC1                   MOV.L       R12,@(4,R15)
    000013CA 2F16                   MOV.L       R1,@-R15
    000013CC 4E0B                   JSR         @R14
    000013CE E10A                   MOV         #10,R1     ; H'0000000A
    000013D0 7F0C                   ADD         #12,R15
    000013D2 67F6                   MOV.L       @R15+,R7
    000013D4 67F6                   MOV.L       @R15+,R7
    000013D6 357C                   ADD         R7,R5
    000013D8 6A53                   MOV         R5,R10
            graphic.c        288                                  dot12 = dotp(v1, v2);
    000013DA 7FF0                   ADD         #-16,R15
    000013DC 70E4                   ADD         #-28,R0
    000013DE 08FE                   MOV.L       @(R0,R15),R8; v1.x
    000013E0 7014                   ADD         #20,R0
    000013E2 05FE                   MOV.L       @(R0,R15),R5; v2.x
    000013E4 6CF3                   MOV         R15,R12
    000013E6 358D                   DMULS.L     R8,R5
    000013E8 7C08                   ADD         #8,R12
    000013EA 070A                   STS         MACH,R7
    000013EC 0B1A                   STS         MACL,R11
    000013EE 2F72                   MOV.L       R7,@R15
    000013F0 1FB1                   MOV.L       R11,@(4,R15)
    000013F2 2FC6                   MOV.L       R12,@-R15
    000013F4 4E0B                   JSR         @R14
    000013F6 E10A                   MOV         #10,R1     ; H'0000000A
    000013F8 7F0C                   ADD         #12,R15
    000013FA 67F6                   MOV.L       @R15+,R7
    000013FC 65F6                   MOV.L       @R15+,R5
    000013FE 7FF0                   ADD         #-16,R15
    00001400 70F0                   ADD         #-16,R0
    00001402 0CFE                   MOV.L       @(R0,R15),R12; v1.y
    00001404 7014                   ADD         #20,R0
    00001406 07FE                   MOV.L       @(R0,R15),R7; v2.y
    00001408 6BF3                   MOV         R15,R11
    0000140A 37CD                   DMULS.L     R12,R7
    0000140C 7B08                   ADD         #8,R11
    0000140E 080A                   STS         MACH,R8
    00001410 061A                   STS         MACL,R6
    00001412 2F82                   MOV.L       R8,@R15
    00001414 1F61                   MOV.L       R6,@(4,R15)
    00001416 2FB6                   MOV.L       R11,@-R15
    00001418 4E0B                   JSR         @R14
    0000141A E10A                   MOV         #10,R1     ; H'0000000A
    0000141C 7F0C                   ADD         #12,R15
    0000141E 67F6                   MOV.L       @R15+,R7
    00001420 67F6                   MOV.L       @R15+,R7
    00001422 357C                   ADD         R7,R5
    00001424 7FF0                   ADD         #-16,R15
    00001426 70F0                   ADD         #-16,R0
    00001428 06FE                   MOV.L       @(R0,R15),R6; v1.z
    0000142A 326D                   DMULS.L     R6,R2
    0000142C 021A                   STS         MACL,R2
    0000142E 1F21                   MOV.L       R2,@(4,R15)
    00001430 62F3                   MOV         R15,R2
    00001432 060A                   STS         MACH,R6
    00001434 7208                   ADD         #8,R2
    00001436 2F62                   MOV.L       R6,@R15
    00001438 2F26                   MOV.L       R2,@-R15
    0000143A 4E0B                   JSR         @R14
    0000143C E10A                   MOV         #10,R1     ; H'0000000A
    0000143E 7F0C                   ADD         #12,R15
    00001440 62F6                   MOV.L       @R15+,R2
    00001442 62F6                   MOV.L       @R15+,R2
    00001444 704C                   ADD         #76,R0
    00001446 0EFE                   MOV.L       @(R0,R15),R14
    00001448 352C                   ADD         R2,R5
    0000144A 68E3                   MOV         R14,R8
    0000144C 7801                   ADD         #1,R8
    0000144E 3E83                   CMP/GE      R8,R14
    00001450 8F7C                   BF/S        L135
    00001452 6C53                   MOV         R5,R12
    00001454 0EFE                   MOV.L       @(R0,R15),R14
    00001456 39E3                   CMP/GE      R14,R9
    00001458 8901                   BT          L228
    0000145A A399                   BRA         L110
    0000145C 0009                   NOP
    0000145E              L228:
    0000145E E0C8                   MOV         #-56,R0    ; H'FFFFFFC8
    00001460 600C                   EXTU.B      R0,R0
    00001462 0BFE                   MOV.L       @(R0,R15),R11
    00001464 7068                   ADD         #104,R0
    00001466 64BB                   NEG         R11,R4
    00001468 0F46                   MOV.L       R4,@(R0,R15)
    0000146A 70BC                   ADD         #-68,R0
    0000146C 0EFE                   MOV.L       @(R0,R15),R14
    0000146E A00D                   BRA         L197
    00001470 68EB                   NEG         R14,R8
    00001472              L198:
    00001472 00000002               .RES.W      1
    00001474 <00000000>             .DATA.L     __shard64
    00001478 <00000000>             .DATA.L     __shlld64
    0000147C <00000000>             .DATA.L     __div64s
    00001480 <00000000>             .DATA.L     _ivec3f
    00001484 <00000000>             .DATA.L     _subvv
    00001488 <00000000>             .DATA.L     _divvi
    0000148C              L197:
    0000148C              L137:
    0000148C 7FF0                   ADD         #-16,R15
    0000148E E042                   MOV         #66,R0     ; H'00000042
    00001490 4008                   SHLL2       R0
    00001492 0BFE                   MOV.L       @(R0,R15),R11
    00001494 64F3                   MOV         R15,R4
    00001496 3ABD                   DMULS.L     R11,R10
    00001498 7408                   ADD         #8,R4
    0000149A 010A                   STS         MACH,R1
    0000149C 0E1A                   STS         MACL,R14
    0000149E 2F12                   MOV.L       R1,@R15
    000014A0 1FE1                   MOV.L       R14,@(4,R15)
    000014A2 2F46                   MOV.L       R4,@-R15
    000014A4 DE92                   MOV.L       L199+2,R14 ; __shard64
    000014A6 4E0B                   JSR         @R14
    000014A8 E10A                   MOV         #10,R1     ; H'0000000A
    000014AA 7F0C                   ADD         #12,R15
    000014AC 66F6                   MOV.L       @R15+,R6
    000014AE 65F6                   MOV.L       @R15+,R5
    000014B0 7FF0                   ADD         #-16,R15
    000014B2 70FC                   ADD         #-4,R0
    000014B4 06FE                   MOV.L       @(R0,R15),R6
    000014B6 6BF3                   MOV         R15,R11
    000014B8 3C6D                   DMULS.L     R6,R12
    000014BA 7B08                   ADD         #8,R11
    000014BC 020A                   STS         MACH,R2
    000014BE 071A                   STS         MACL,R7
    000014C0 2F22                   MOV.L       R2,@R15
    000014C2 1F71                   MOV.L       R7,@(4,R15)
    000014C4 2FB6                   MOV.L       R11,@-R15
    000014C6 4E0B                   JSR         @R14
    000014C8 E10A                   MOV         #10,R1     ; H'0000000A
    000014CA 7F0C                   ADD         #12,R15
    000014CC 62F6                   MOV.L       @R15+,R2
    000014CE 62F6                   MOV.L       @R15+,R2
    000014D0 3528                   SUB         R2,R5
    000014D2 4511                   CMP/PZ      R5
    000014D4 8F2E                   BF/S        L138
    000014D6 6B53                   MOV         R5,R11
    000014D8 7FF0                   ADD         #-16,R15
    000014DA E001                   MOV         #1,R0      ; H'00000001
    000014DC 4018                   SHLL8       R0
    000014DE 01FE                   MOV.L       @(R0,R15),R1
    000014E0 3C1D                   DMULS.L     R1,R12
    000014E2 051A                   STS         MACL,R5
    000014E4 1F51                   MOV.L       R5,@(4,R15)
    000014E6 65F3                   MOV         R15,R5
    000014E8 040A                   STS         MACH,R4
    000014EA 7508                   ADD         #8,R5
    000014EC 2F42                   MOV.L       R4,@R15
    000014EE 2F56                   MOV.L       R5,@-R15
    000014F0 4E0B                   JSR         @R14
    000014F2 E10A                   MOV         #10,R1     ; H'0000000A
    000014F4 7F0C                   ADD         #12,R15
    000014F6 66F6                   MOV.L       @R15+,R6
    000014F8 65F6                   MOV.L       @R15+,R5
    000014FA 7FF0                   ADD         #-16,R15
    000014FC 7004                   ADD         #4,R0
    000014FE 06FE                   MOV.L       @(R0,R15),R6
    00001500 64F3                   MOV         R15,R4
    00001502 3A6D                   DMULS.L     R6,R10
    00001504 7408                   ADD         #8,R4
    00001506 020A                   STS         MACH,R2
    00001508 071A                   STS         MACL,R7
    0000150A 2F22                   MOV.L       R2,@R15
    0000150C 1F71                   MOV.L       R7,@(4,R15)
    0000150E 2F46                   MOV.L       R4,@-R15
    00001510 4E0B                   JSR         @R14
    00001512 E10A                   MOV         #10,R1     ; H'0000000A
    00001514 7F0C                   ADD         #12,R15
    00001516 62F6                   MOV.L       @R15+,R2
    00001518 62F6                   MOV.L       @R15+,R2
    0000151A 3528                   SUB         R2,R5
    0000151C 4511                   CMP/PZ      R5
    0000151E 8F09                   BF/S        L138
    00001520 6E53                   MOV         R5,R14
    00001522 E0FC                   MOV         #-4,R0     ; H'FFFFFFFC
    00001524 600C                   EXTU.B      R0,R0
    00001526 62B3                   MOV         R11,R2
    00001528 06FE                   MOV.L       @(R0,R15),R6
    0000152A 32EC                   ADD         R14,R2
    0000152C 3263                   CMP/GE      R6,R2
    0000152E 8901                   BT          L229
    00001530 A13F                   BRA         L141
    00001532 0009                   NOP
    00001534              L229:
    00001534              L138:
    00001534 E04C                   MOV         #76,R0     ; H'0000004C
    00001536 4008                   SHLL2       R0
    00001538 04FE                   MOV.L       @(R0,R15),R4
    0000153A 70B8                   ADD         #-72,R0
    0000153C 0EFE                   MOV.L       @(R0,R15),R14
    0000153E 79FF                   ADD         #-1,R9
    00001540 39E3                   CMP/GE      R14,R9
    00001542 3A8C                   ADD         R8,R10
    00001544 8DA2                   BT/S        L137
    00001546 3C4C                   ADD         R4,R12
    00001548 A322                   BRA         L110
    0000154A 0009                   NOP
    0000154C              L135:
            graphic.c        289    
            graphic.c        290                                  for(xiter = box[2]; xiter >= box[0]; xiter -= 1, dot02 -= v0x_sc, dot12 -= v1x_sc) {
    0000154C 3983                   CMP/GE      R8,R9
    0000154E 8901                   BT          L230
    00001550 A0D0                   BRA         L143
    00001552 0009                   NOP
    00001554              L230:
    00001554 E1BC                   MOV         #-68,R1    ; H'FFFFFFBC
    00001556 611C                   EXTU.B      R1,R1
    00001558 31FC                   ADD         R15,R1
    0000155A 551C                   MOV.L       @(48,R1),R5
    0000155C 5413                   MOV.L       @(12,R1),R4
    0000155E E04D                   MOV         #77,R0     ; H'0000004D
    00001560 4008                   SHLL2       R0
    00001562 675B                   NEG         R5,R7
    00001564 664B                   NEG         R4,R6
    00001566 0F76                   MOV.L       R7,@(R0,R15)
    00001568 7088                   ADD         #-120,R0
    0000156A 1161                   MOV.L       R6,@(4,R1)
    0000156C 0FD6                   MOV.L       R13,@(R0,R15)
    0000156E 6D63                   MOV         R6,R13
    00001570              L144:
    00001570 7FF0                   ADD         #-16,R15
    00001572 E042                   MOV         #66,R0     ; H'00000042
    00001574 4008                   SHLL2       R0
    00001576 0BFE                   MOV.L       @(R0,R15),R11
    00001578 6EF3                   MOV         R15,R14
    0000157A 3ABD                   DMULS.L     R11,R10
    0000157C 7E08                   ADD         #8,R14
    0000157E 020A                   STS         MACH,R2
    00001580 0B1A                   STS         MACL,R11
    00001582 2F22                   MOV.L       R2,@R15
    00001584 1FB1                   MOV.L       R11,@(4,R15)
    00001586 2FE6                   MOV.L       R14,@-R15
    00001588 DE59                   MOV.L       L199+2,R14 ; __shard64
    0000158A 4E0B                   JSR         @R14
    0000158C E10A                   MOV         #10,R1     ; H'0000000A
    0000158E 7F0C                   ADD         #12,R15
    00001590 61F6                   MOV.L       @R15+,R1
    00001592 65F6                   MOV.L       @R15+,R5
    00001594 7FF0                   ADD         #-16,R15
    00001596 70FC                   ADD         #-4,R0
    00001598 01FE                   MOV.L       @(R0,R15),R1
    0000159A 67F3                   MOV         R15,R7
    0000159C 3C1D                   DMULS.L     R1,R12
    0000159E 7708                   ADD         #8,R7
    000015A0 060A                   STS         MACH,R6
    000015A2 041A                   STS         MACL,R4
    000015A4 2F62                   MOV.L       R6,@R15
    000015A6 1F41                   MOV.L       R4,@(4,R15)
    000015A8 2F76                   MOV.L       R7,@-R15
    000015AA 4E0B                   JSR         @R14
    000015AC E10A                   MOV         #10,R1     ; H'0000000A
    000015AE 7F0C                   ADD         #12,R15
    000015B0 62F6                   MOV.L       @R15+,R2
    000015B2 62F6                   MOV.L       @R15+,R2
    000015B4 3528                   SUB         R2,R5
    000015B6 4511                   CMP/PZ      R5
    000015B8 8F2C                   BF/S        L145
    000015BA 6B53                   MOV         R5,R11
    000015BC 7FF0                   ADD         #-16,R15
    000015BE E001                   MOV         #1,R0      ; H'00000001
    000015C0 4018                   SHLL8       R0
    000015C2 01FE                   MOV.L       @(R0,R15),R1
    000015C4 3C1D                   DMULS.L     R1,R12
    000015C6 051A                   STS         MACL,R5
    000015C8 1F51                   MOV.L       R5,@(4,R15)
    000015CA 65F3                   MOV         R15,R5
    000015CC 040A                   STS         MACH,R4
    000015CE 7508                   ADD         #8,R5
    000015D0 2F42                   MOV.L       R4,@R15
    000015D2 2F56                   MOV.L       R5,@-R15
    000015D4 4E0B                   JSR         @R14
    000015D6 E10A                   MOV         #10,R1     ; H'0000000A
    000015D8 7F0C                   ADD         #12,R15
    000015DA 66F6                   MOV.L       @R15+,R6
    000015DC 65F6                   MOV.L       @R15+,R5
    000015DE 7FF0                   ADD         #-16,R15
    000015E0 7004                   ADD         #4,R0
    000015E2 06FE                   MOV.L       @(R0,R15),R6
    000015E4 64F3                   MOV         R15,R4
    000015E6 3A6D                   DMULS.L     R6,R10
    000015E8 7408                   ADD         #8,R4
    000015EA 020A                   STS         MACH,R2
    000015EC 071A                   STS         MACL,R7
    000015EE 2F22                   MOV.L       R2,@R15
    000015F0 1F71                   MOV.L       R7,@(4,R15)
    000015F2 2F46                   MOV.L       R4,@-R15
    000015F4 4E0B                   JSR         @R14
    000015F6 E10A                   MOV         #10,R1     ; H'0000000A
    000015F8 7F0C                   ADD         #12,R15
    000015FA 62F6                   MOV.L       @R15+,R2
    000015FC 62F6                   MOV.L       @R15+,R2
    000015FE 3528                   SUB         R2,R5
    00001600 4511                   CMP/PZ      R5
    00001602 8F07                   BF/S        L145
    00001604 6E53                   MOV         R5,R14
    00001606 E0FC                   MOV         #-4,R0     ; H'FFFFFFFC
    00001608 600C                   EXTU.B      R0,R0
    0000160A 62B3                   MOV         R11,R2
    0000160C 06FE                   MOV.L       @(R0,R15),R6
    0000160E 32EC                   ADD         R14,R2
    00001610 3263                   CMP/GE      R6,R2
    00001612 8B68                   BF          L148
    00001614              L145:
    00001614 E04D                   MOV         #77,R0     ; H'0000004D
    00001616 4008                   SHLL2       R0
    00001618 02FE                   MOV.L       @(R0,R15),R2
    0000161A 3CDC                   ADD         R13,R12
    0000161C 3A2C                   ADD         R2,R10
            graphic.c        291                                          u = mulff(dot11, dot02) - mulff(dot01, dot12);
    0000161E 7FF0                   ADD         #-16,R15
    00001620 70D4                   ADD         #-44,R0
    00001622 0EFE                   MOV.L       @(R0,R15),R14
    00001624 3AED                   DMULS.L     R14,R10
    00001626 050A                   STS         MACH,R5
    00001628 2F52                   MOV.L       R5,@R15
    0000162A 65F3                   MOV         R15,R5
    0000162C 041A                   STS         MACL,R4
    0000162E 7508                   ADD         #8,R5
    00001630 1F41                   MOV.L       R4,@(4,R15)
    00001632 2F56                   MOV.L       R5,@-R15
    00001634 DE2E                   MOV.L       L199+2,R14 ; __shard64
    00001636 4E0B                   JSR         @R14
    00001638 E10A                   MOV         #10,R1     ; H'0000000A
    0000163A 7F0C                   ADD         #12,R15
    0000163C 66F6                   MOV.L       @R15+,R6
    0000163E 64F6                   MOV.L       @R15+,R4
    00001640 7FF0                   ADD         #-16,R15
    00001642 70FC                   ADD         #-4,R0
    00001644 06FE                   MOV.L       @(R0,R15),R6
    00001646 6BF3                   MOV         R15,R11
    00001648 3C6D                   DMULS.L     R6,R12
    0000164A 7B08                   ADD         #8,R11
    0000164C 060A                   STS         MACH,R6
    0000164E 071A                   STS         MACL,R7
    00001650 2F62                   MOV.L       R6,@R15
    00001652 1F71                   MOV.L       R7,@(4,R15)
    00001654 2FB6                   MOV.L       R11,@-R15
    00001656 4E0B                   JSR         @R14
    00001658 E10A                   MOV         #10,R1     ; H'0000000A
    0000165A 7F0C                   ADD         #12,R15
    0000165C 62F6                   MOV.L       @R15+,R2
    0000165E 62F6                   MOV.L       @R15+,R2
    00001660 3428                   SUB         R2,R4
            graphic.c        292                                          if (u < 0) continue;    
    00001662 4411                   CMP/PZ      R4
    00001664 8F2C                   BF/S        L149
    00001666 6B43                   MOV         R4,R11
            graphic.c        293                                  
            graphic.c        294                                          v = mulff(dot00, dot12) - mulff(dot01, dot02);                          
    00001668 7FF0                   ADD         #-16,R15
    0000166A E001                   MOV         #1,R0      ; H'00000001
    0000166C 4018                   SHLL8       R0
    0000166E 06FE                   MOV.L       @(R0,R15),R6
    00001670 61F3                   MOV         R15,R1
    00001672 3C6D                   DMULS.L     R6,R12
    00001674 7108                   ADD         #8,R1
    00001676 070A                   STS         MACH,R7
    00001678 051A                   STS         MACL,R5
    0000167A 2F72                   MOV.L       R7,@R15
    0000167C 1F51                   MOV.L       R5,@(4,R15)
    0000167E 2F16                   MOV.L       R1,@-R15
    00001680 4E0B                   JSR         @R14
    00001682 E10A                   MOV         #10,R1     ; H'0000000A
    00001684 7F0C                   ADD         #12,R15
    00001686 64F6                   MOV.L       @R15+,R4
    00001688 65F6                   MOV.L       @R15+,R5
    0000168A 7FF0                   ADD         #-16,R15
    0000168C 7004                   ADD         #4,R0
    0000168E 04FE                   MOV.L       @(R0,R15),R4
    00001690 3A4D                   DMULS.L     R4,R10
    00001692 64F3                   MOV         R15,R4
    00001694 7408                   ADD         #8,R4
    00001696 020A                   STS         MACH,R2
    00001698 071A                   STS         MACL,R7
    0000169A 2F22                   MOV.L       R2,@R15
    0000169C 1F71                   MOV.L       R7,@(4,R15)
    0000169E 2F46                   MOV.L       R4,@-R15
    000016A0 4E0B                   JSR         @R14
    000016A2 E10A                   MOV         #10,R1     ; H'0000000A
    000016A4 7F0C                   ADD         #12,R15
    000016A6 62F6                   MOV.L       @R15+,R2
    000016A8 62F6                   MOV.L       @R15+,R2
    000016AA 3528                   SUB         R2,R5
            graphic.c        295                                          if (v < 0) continue;
    000016AC 4511                   CMP/PZ      R5
    000016AE 8F07                   BF/S        L149
    000016B0 6E53                   MOV         R5,R14
    000016B2 E0FC                   MOV         #-4,R0     ; H'FFFFFFFC
    000016B4 600C                   EXTU.B      R0,R0
            graphic.c        296                                          
            graphic.c        297                                          if(u + v >= denom) continue;
    000016B6 62B3                   MOV         R11,R2
    000016B8 06FE                   MOV.L       @(R0,R15),R6
    000016BA 32EC                   ADD         R14,R2
    000016BC 3263                   CMP/GE      R6,R2
    000016BE 8B0D                   BF          L152
    000016C0              L149:
    000016C0 79FE                   ADD         #-2,R9
    000016C2 E04D                   MOV         #77,R0     ; H'0000004D
    000016C4 4008                   SHLL2       R0
    000016C6 3983                   CMP/GE      R8,R9
    000016C8 04FE                   MOV.L       @(R0,R15),R4
    000016CA 3CDC                   ADD         R13,R12
    000016CC 8F02                   BF/S        L231
    000016CE 3A4C                   ADD         R4,R10
    000016D0 AF4E                   BRA         L144
    000016D2 0009                   NOP
    000016D4              L231:
    000016D4 E0BC                   MOV         #-68,R0    ; H'FFFFFFBC
    000016D6 600C                   EXTU.B      R0,R0
    000016D8 A00C                   BRA         L143
    000016DA 0DFE                   MOV.L       @(R0,R15),R13
    000016DC              L152:
    000016DC E0BC                   MOV         #-68,R0    ; H'FFFFFFBC
    000016DE 600C                   EXTU.B      R0,R0
    000016E0 0DFE                   MOV.L       @(R0,R15),R13
    000016E2 A066                   BRA         L141
    000016E4 79FF                   ADD         #-1,R9
    000016E6              L148:
    000016E6 E0BC                   MOV         #-68,R0    ; H'FFFFFFBC
    000016E8 600C                   EXTU.B      R0,R0
    000016EA A062                   BRA         L141
    000016EC 0DFE                   MOV.L       @(R0,R15),R13
    000016EE              L199:
    000016EE 00000002               .RES.W      1
    000016F0 <00000000>             .DATA.L     __shard64
    000016F4              L143:
    000016F4 E0E8                   MOV         #-24,R0    ; H'FFFFFFE8
    000016F6 600C                   EXTU.B      R0,R0
    000016F8 0EFE                   MOV.L       @(R0,R15),R14
    000016FA 39E3                   CMP/GE      R14,R9
    000016FC 8901                   BT          L232
    000016FE A247                   BRA         L110
    00001700 0009                   NOP
    00001702              L232:
    00001702 7FF0                   ADD         #-16,R15
    00001704 E042                   MOV         #66,R0     ; H'00000042
    00001706 4008                   SHLL2       R0
    00001708 0BFE                   MOV.L       @(R0,R15),R11
    0000170A 3ABD                   DMULS.L     R11,R10
    0000170C 050A                   STS         MACH,R5
    0000170E 2F52                   MOV.L       R5,@R15
    00001710 65F3                   MOV         R15,R5
    00001712 041A                   STS         MACL,R4
    00001714 7508                   ADD         #8,R5
    00001716 1F41                   MOV.L       R4,@(4,R15)
    00001718 2F56                   MOV.L       R5,@-R15
    0000171A DED0                   MOV.L       L201+2,R14 ; __shard64
    0000171C 4E0B                   JSR         @R14
    0000171E E10A                   MOV         #10,R1     ; H'0000000A
    00001720 7F0C                   ADD         #12,R15
    00001722 66F6                   MOV.L       @R15+,R6
    00001724 64F6                   MOV.L       @R15+,R4
    00001726 7FF0                   ADD         #-16,R15
    00001728 70FC                   ADD         #-4,R0
    0000172A 06FE                   MOV.L       @(R0,R15),R6
    0000172C 3C6D                   DMULS.L     R6,R12
    0000172E 081A                   STS         MACL,R8
    00001730 1F81                   MOV.L       R8,@(4,R15)
    00001732 68F3                   MOV         R15,R8
    00001734 070A                   STS         MACH,R7
    00001736 7808                   ADD         #8,R8
    00001738 2F72                   MOV.L       R7,@R15
    0000173A 2F86                   MOV.L       R8,@-R15
    0000173C 4E0B                   JSR         @R14
    0000173E E10A                   MOV         #10,R1     ; H'0000000A
    00001740 7F0C                   ADD         #12,R15
    00001742 62F6                   MOV.L       @R15+,R2
    00001744 62F6                   MOV.L       @R15+,R2
    00001746 3428                   SUB         R2,R4
    00001748 4411                   CMP/PZ      R4
    0000174A 8D02                   BT/S        L233
    0000174C 6B43                   MOV         R4,R11
    0000174E A21F                   BRA         L110
    00001750 0009                   NOP
    00001752              L233:
    00001752 7FF0                   ADD         #-16,R15
    00001754 E001                   MOV         #1,R0      ; H'00000001
    00001756 4018                   SHLL8       R0
    00001758 01FE                   MOV.L       @(R0,R15),R1
    0000175A 65F3                   MOV         R15,R5
    0000175C 3C1D                   DMULS.L     R1,R12
    0000175E 7508                   ADD         #8,R5
    00001760 040A                   STS         MACH,R4
    00001762 021A                   STS         MACL,R2
    00001764 2F42                   MOV.L       R4,@R15
    00001766 1F21                   MOV.L       R2,@(4,R15)
    00001768 2F56                   MOV.L       R5,@-R15
    0000176A 4E0B                   JSR         @R14
    0000176C E10A                   MOV         #10,R1     ; H'0000000A
    0000176E 7F0C                   ADD         #12,R15
    00001770 66F6                   MOV.L       @R15+,R6
    00001772 6CF6                   MOV.L       @R15+,R12
    00001774 7FF0                   ADD         #-16,R15
    00001776 7004                   ADD         #4,R0
    00001778 06FE                   MOV.L       @(R0,R15),R6
    0000177A 68F3                   MOV         R15,R8
    0000177C 3A6D                   DMULS.L     R6,R10
    0000177E 7808                   ADD         #8,R8
    00001780 070A                   STS         MACH,R7
    00001782 041A                   STS         MACL,R4
    00001784 2F72                   MOV.L       R7,@R15
    00001786 1F41                   MOV.L       R4,@(4,R15)
    00001788 2F86                   MOV.L       R8,@-R15
    0000178A 4E0B                   JSR         @R14
    0000178C E10A                   MOV         #10,R1     ; H'0000000A
    0000178E 7F0C                   ADD         #12,R15
    00001790 62F6                   MOV.L       @R15+,R2
    00001792 62F6                   MOV.L       @R15+,R2
    00001794 3C28                   SUB         R2,R12
    00001796 4C11                   CMP/PZ      R12
    00001798 8D02                   BT/S        L234
    0000179A 6EC3                   MOV         R12,R14
    0000179C A1F8                   BRA         L110
    0000179E 0009                   NOP
    000017A0              L234:
    000017A0 E0FC                   MOV         #-4,R0     ; H'FFFFFFFC
    000017A2 600C                   EXTU.B      R0,R0
    000017A4 62B3                   MOV         R11,R2
    000017A6 06FE                   MOV.L       @(R0,R15),R6
    000017A8 32EC                   ADD         R14,R2
    000017AA 3263                   CMP/GE      R6,R2
    000017AC 8B01                   BF          L235
    000017AE A1EF                   BRA         L110
    000017B0 0009                   NOP
    000017B2              L235:
    000017B2              L141:
            graphic.c        298    
            graphic.c        299                                          found = 1;
            graphic.c        300                                  
            graphic.c        301                                          u = divff(u, denom);
    000017B2 7FF8                   ADD         #-8,R15
    000017B4 E5AC                   MOV         #-84,R5    ; H'FFFFFFAC
    000017B6 655C                   EXTU.B      R5,R5
    000017B8 67F3                   MOV         R15,R7
    000017BA 375C                   ADD         R5,R7
    000017BC 5871                   MOV.L       @(4,R7),R8
    000017BE 6472                   MOV.L       @R7,R4
    000017C0 2F86                   MOV.L       R8,@-R15
    000017C2 2F46                   MOV.L       R4,@-R15
    000017C4 7FF0                   ADD         #-16,R15
    000017C6 62B3                   MOV         R11,R2
    000017C8 4200                   SHLL        R2
    000017CA 322A                   SUBC        R2,R2
    000017CC 68F3                   MOV         R15,R8
    000017CE 7808                   ADD         #8,R8
    000017D0 2F22                   MOV.L       R2,@R15
    000017D2 1FB1                   MOV.L       R11,@(4,R15)
    000017D4 2F86                   MOV.L       R8,@-R15
    000017D6 DBA2                   MOV.L       L201+6,R11 ; __shlld64
    000017D8 4B0B                   JSR         @R11
    000017DA E10A                   MOV         #10,R1     ; H'0000000A
    000017DC 7F0C                   ADD         #12,R15
    000017DE 6AF3                   MOV         R15,R10
    000017E0 7A10                   ADD         #16,R10
    000017E2 DCA0                   MOV.L       L201+10,R12; __div64s
    000017E4 4C0B                   JSR         @R12
    000017E6 2FA6                   MOV.L       R10,@-R15
    000017E8 7F14                   ADD         #20,R15
    000017EA 61F6                   MOV.L       @R15+,R1
    000017EC E04F                   MOV         #79,R0     ; H'0000004F
    000017EE 61F2                   MOV.L       @R15,R1
    000017F0 4008                   SHLL2       R0
    000017F2 0F16                   MOV.L       R1,@(R0,R15)
    000017F4 7FFC                   ADD         #-4,R15
            graphic.c        302                                          v = divff(v, denom);            
    000017F6 EAAC                   MOV         #-84,R10   ; H'FFFFFFAC
    000017F8 6AAC                   EXTU.B      R10,R10
    000017FA 64F3                   MOV         R15,R4
    000017FC 34AC                   ADD         R10,R4
    000017FE 5241                   MOV.L       @(4,R4),R2
    00001800 6542                   MOV.L       @R4,R5
    00001802 2F26                   MOV.L       R2,@-R15
    00001804 2F56                   MOV.L       R5,@-R15
    00001806 7FF0                   ADD         #-16,R15
    00001808 62E3                   MOV         R14,R2
    0000180A 4200                   SHLL        R2
    0000180C 322A                   SUBC        R2,R2
    0000180E 65F3                   MOV         R15,R5
    00001810 7508                   ADD         #8,R5
    00001812 2F22                   MOV.L       R2,@R15
    00001814 1FE1                   MOV.L       R14,@(4,R15)
    00001816 2F56                   MOV.L       R5,@-R15
    00001818 4B0B                   JSR         @R11
    0000181A E10A                   MOV         #10,R1     ; H'0000000A
    0000181C 7F0C                   ADD         #12,R15
    0000181E 66F3                   MOV         R15,R6
    00001820 7610                   ADD         #16,R6
    00001822 4C0B                   JSR         @R12
    00001824 2F66                   MOV.L       R6,@-R15
    00001826 7F14                   ADD         #20,R15
    00001828 67F6                   MOV.L       @R15+,R7
    0000182A 65F6                   MOV.L       @R15+,R5
            graphic.c        303          
            graphic.c        304                                          ozq = mulff(ozb, v) + mulff(ozc, u) + mulff(oza, int2f(1) - u - v);     
    0000182C 7FF0                   ADD         #-16,R15
    0000182E 70D8                   ADD         #-40,R0
    00001830 0EFE                   MOV.L       @(R0,R15),R14
    00001832 68F3                   MOV         R15,R8
    00001834 35ED                   DMULS.L     R14,R5
    00001836 7808                   ADD         #8,R8
    00001838 070A                   STS         MACH,R7
    0000183A 041A                   STS         MACL,R4
    0000183C 2F72                   MOV.L       R7,@R15
    0000183E 1F41                   MOV.L       R4,@(4,R15)
    00001840 2F86                   MOV.L       R8,@-R15
    00001842 DE86                   MOV.L       L201+2,R14 ; __shard64
    00001844 4E0B                   JSR         @R14
    00001846 E10A                   MOV         #10,R1     ; H'0000000A
    00001848 7F0C                   ADD         #12,R15
    0000184A 6AF6                   MOV.L       @R15+,R10
    0000184C 64F6                   MOV.L       @R15+,R4
    0000184E 7FF0                   ADD         #-16,R15
    00001850 7004                   ADD         #4,R0
    00001852 0CFE                   MOV.L       @(R0,R15),R12
    00001854 7030                   ADD         #48,R0
    00001856 0AFE                   MOV.L       @(R0,R15),R10
    00001858 3ACD                   DMULS.L     R12,R10
    0000185A 6CF3                   MOV         R15,R12
    0000185C 7C08                   ADD         #8,R12
    0000185E 0B0A                   STS         MACH,R11
    00001860 071A                   STS         MACL,R7
    00001862 2FB2                   MOV.L       R11,@R15
    00001864 1F71                   MOV.L       R7,@(4,R15)
    00001866 2FC6                   MOV.L       R12,@-R15
    00001868 4E0B                   JSR         @R14
    0000186A E10A                   MOV         #10,R1     ; H'0000000A
    0000186C 7F0C                   ADD         #12,R15
    0000186E 61F6                   MOV.L       @R15+,R1
    00001870 61F6                   MOV.L       @R15+,R1
    00001872 341C                   ADD         R1,R4
    00001874 7FF0                   ADD         #-16,R15
    00001876 E744                   MOV         #68,R7     ; H'00000044
    00001878 4708                   SHLL2       R7
    0000187A 37FC                   ADD         R15,R7
    0000187C 5A78                   MOV.L       @(32,R7),R10
    0000187E 567E                   MOV.L       @(56,R7),R6
    00001880 6872                   MOV.L       @R7,R8
    00001882 3A68                   SUB         R6,R10
    00001884 3A58                   SUB         R5,R10
    00001886 38AD                   DMULS.L     R10,R8
    00001888 6BF3                   MOV         R15,R11
    0000188A 7B08                   ADD         #8,R11
    0000188C 17A8                   MOV.L       R10,@(32,R7)
    0000188E 0A0A                   STS         MACH,R10
    00001890 081A                   STS         MACL,R8
    00001892 2FA2                   MOV.L       R10,@R15
    00001894 1F81                   MOV.L       R8,@(4,R15)
    00001896 2FB6                   MOV.L       R11,@-R15
    00001898 4E0B                   JSR         @R14
    0000189A E10A                   MOV         #10,R1     ; H'0000000A
    0000189C 7F0C                   ADD         #12,R15
    0000189E 6CF6                   MOV.L       @R15+,R12
    000018A0 6CF6                   MOV.L       @R15+,R12
    000018A2 70F4                   ADD         #-12,R0
    000018A4 34CC                   ADD         R12,R4
    000018A6 0F46                   MOV.L       R4,@(R0,R15)
            graphic.c        305                                          uzq = mulff(uzc, u); //mulff(uzb, v) + mulff(uzc, u) + mulff(uza, int2f(1) - u - v);
    000018A8 7FF0                   ADD         #-16,R15
    000018AA 70E4                   ADD         #-28,R0
    000018AC 06FE                   MOV.L       @(R0,R15),R6
    000018AE 7028                   ADD         #40,R0
    000018B0 01FE                   MOV.L       @(R0,R15),R1
    000018B2 67F3                   MOV         R15,R7
    000018B4 316D                   DMULS.L     R6,R1
    000018B6 7708                   ADD         #8,R7
    000018B8 060A                   STS         MACH,R6
    000018BA 041A                   STS         MACL,R4
    000018BC 2F62                   MOV.L       R6,@R15
    000018BE 1F41                   MOV.L       R4,@(4,R15)
    000018C0 2F76                   MOV.L       R7,@-R15
    000018C2 4E0B                   JSR         @R14
    000018C4 E10A                   MOV         #10,R1     ; H'0000000A
    000018C6 7F0C                   ADD         #12,R15
    000018C8 68F6                   MOV.L       @R15+,R8
    000018CA 70FC                   ADD         #-4,R0
    000018CC 68F2                   MOV.L       @R15,R8
    000018CE 0F86                   MOV.L       R8,@(R0,R15)
    000018D0 7FF4                   ADD         #-12,R15
            graphic.c        306                                          vzq = mulff(vzb, v); //mulff(vzb, v); + mulff(vzc, u) + mulff(vza, int2f(1) - u - v);   
    000018D2 70D8                   ADD         #-40,R0
    000018D4 0AFE                   MOV.L       @(R0,R15),R10
    000018D6 6CF3                   MOV         R15,R12
    000018D8 35AD                   DMULS.L     R10,R5
    000018DA 7C08                   ADD         #8,R12
    000018DC 050A                   STS         MACH,R5
    000018DE 0B1A                   STS         MACL,R11
    000018E0 2F52                   MOV.L       R5,@R15
    000018E2 1FB1                   MOV.L       R11,@(4,R15)
    000018E4 2FC6                   MOV.L       R12,@-R15
    000018E6 4E0B                   JSR         @R14
    000018E8 E10A                   MOV         #10,R1     ; H'0000000A
    000018EA 7F0C                   ADD         #12,R15
    000018EC 6EF6                   MOV.L       @R15+,R14
    000018EE 702C                   ADD         #44,R0
    000018F0 6EF2                   MOV.L       @R15,R14
    000018F2 0FE6                   MOV.L       R14,@(R0,R15)
    000018F4 7F04                   ADD         #4,R15
            graphic.c        307    
            graphic.c        308                                          maxx = xiter;   
            graphic.c        309                                          break;  
            graphic.c        310                                  }
            graphic.c        311                                  if (found != 1) continue;
            graphic.c        312                                  found = 0;
            graphic.c        313    
            graphic.c        314    
            graphic.c        315                                  if (maxx < 0) continue;
    000018F6 4911                   CMP/PZ      R9
    000018F8 E0B8                   MOV         #-72,R0    ; H'FFFFFFB8
    000018FA 600C                   EXTU.B      R0,R0
    000018FC 8D02                   BT/S        L236
    000018FE 0F96                   MOV.L       R9,@(R0,R15); maxx
    00001900 A146                   BRA         L104
    00001902 0009                   NOP
    00001904              L236:
            graphic.c        316    
            graphic.c        317                                  if ((maxx-minx) > 1023) continue;  //shouldn't get that big
    00001904 06FE                   MOV.L       @(R0,R15),R6; maxx
    00001906 E04B                   MOV         #75,R0     ; H'0000004B
    00001908 4008                   SHLL2       R0
    0000190A 0BFE                   MOV.L       @(R0,R15),R11; minx
    0000190C E504                   MOV         #4,R5      ; H'00000004
    0000190E 4518                   SHLL8       R5
    00001910 36B8                   SUB         R11,R6
    00001912 75FF                   ADD         #-1,R5
    00001914 3657                   CMP/GT      R5,R6
    00001916 8B01                   BF          L237
    00001918 A13A                   BRA         L104
    0000191A 0009                   NOP
    0000191C              L237:
            graphic.c        318                                  if ((maxx-minx) <= 0) continue;
    0000191C 4615                   CMP/PL      R6
    0000191E 8901                   BT          L238
    00001920 A136                   BRA         L104
    00001922 0009                   NOP
    00001924              L238:
            graphic.c        319    
            graphic.c        320                                  diff = int2f(maxx-minx);
            graphic.c        321    
            graphic.c        322                                  ozstep = divff(ozq-ozp, diff);
    00001924 4618                   SHLL8       R6
    00001926 4608                   SHLL2       R6
    00001928 6263                   MOV         R6,R2
    0000192A 4200                   SHLL        R2
    0000192C 355A                   SUBC        R5,R5
    0000192E E7AC                   MOV         #-84,R7    ; H'FFFFFFAC
    00001930 677C                   EXTU.B      R7,R7
    00001932 6CF3                   MOV         R15,R12
    00001934 3C7C                   ADD         R7,R12
    00001936 2C52                   MOV.L       R5,@R12
    00001938 1C61                   MOV.L       R6,@(4,R12)
    0000193A 7FF8                   ADD         #-8,R15
    0000193C E5B4                   MOV         #-76,R5    ; H'FFFFFFB4
    0000193E 655C                   EXTU.B      R5,R5
    00001940 6EF3                   MOV         R15,R14
    00001942 3E5C                   ADD         R5,R14
    00001944 57E1                   MOV.L       @(4,R14),R7
    00001946 69E2                   MOV.L       @R14,R9
    00001948 2F76                   MOV.L       R7,@-R15
    0000194A 2F96                   MOV.L       R9,@-R15
    0000194C 7FF0                   ADD         #-16,R15
    0000194E E54A                   MOV         #74,R5     ; H'0000004A
    00001950 4508                   SHLL2       R5
    00001952 35FC                   ADD         R15,R5
    00001954 5B55                   MOV.L       @(20,R5),R11
    00001956 585D                   MOV.L       @(52,R5),R8
    00001958 38B8                   SUB         R11,R8
    0000195A 6283                   MOV         R8,R2
    0000195C 4200                   SHLL        R2
    0000195E 158D                   MOV.L       R8,@(52,R5)
    00001960 322A                   SUBC        R2,R2
    00001962 61F3                   MOV         R15,R1
    00001964 7108                   ADD         #8,R1
    00001966 2F22                   MOV.L       R2,@R15
    00001968 1F81                   MOV.L       R8,@(4,R15)
    0000196A 2F16                   MOV.L       R1,@-R15
    0000196C DC3C                   MOV.L       L201+6,R12 ; __shlld64
    0000196E 4C0B                   JSR         @R12
    00001970 E10A                   MOV         #10,R1     ; H'0000000A
    00001972 7F0C                   ADD         #12,R15
    00001974 64F3                   MOV         R15,R4
    00001976 7410                   ADD         #16,R4
    00001978 DE3A                   MOV.L       L201+10,R14; __div64s
    0000197A 4E0B                   JSR         @R14
    0000197C 2F46                   MOV.L       R4,@-R15
    0000197E 7F14                   ADD         #20,R15
    00001980 65F6                   MOV.L       @R15+,R5
    00001982 E053                   MOV         #83,R0     ; H'00000053
    00001984 65F2                   MOV.L       @R15,R5
    00001986 4008                   SHLL2       R0
    00001988 0F56                   MOV.L       R5,@(R0,R15)
    0000198A 7FFC                   ADD         #-4,R15
            graphic.c        323                                  uzstep = divff(uzq-uzp, diff);
    0000198C E8B4                   MOV         #-76,R8    ; H'FFFFFFB4
    0000198E 688C                   EXTU.B      R8,R8
    00001990 67F3                   MOV         R15,R7
    00001992 378C                   ADD         R8,R7
    00001994 5971                   MOV.L       @(4,R7),R9
    00001996 6A72                   MOV.L       @R7,R10
    00001998 2F96                   MOV.L       R9,@-R15
    0000199A 2FA6                   MOV.L       R10,@-R15
    0000199C 7FF0                   ADD         #-16,R15
    0000199E E84A                   MOV         #74,R8     ; H'0000004A
    000019A0 4808                   SHLL2       R8
    000019A2 38FC                   ADD         R15,R8
    000019A4 5A87                   MOV.L       @(28,R8),R10
    000019A6 528E                   MOV.L       @(56,R8),R2
    000019A8 32A8                   SUB         R10,R2
    000019AA 182E                   MOV.L       R2,@(56,R8)
    000019AC 4200                   SHLL        R2
    000019AE 322A                   SUBC        R2,R2
    000019B0 598E                   MOV.L       @(56,R8),R9
    000019B2 6AF3                   MOV         R15,R10
    000019B4 7A08                   ADD         #8,R10
    000019B6 2F22                   MOV.L       R2,@R15
    000019B8 1F91                   MOV.L       R9,@(4,R15)
    000019BA 2FA6                   MOV.L       R10,@-R15
    000019BC 4C0B                   JSR         @R12
    000019BE E10A                   MOV         #10,R1     ; H'0000000A
    000019C0 7F0C                   ADD         #12,R15
    000019C2 61F3                   MOV         R15,R1
    000019C4 7110                   ADD         #16,R1
    000019C6 4E0B                   JSR         @R14
    000019C8 2F16                   MOV.L       R1,@-R15
    000019CA 7F14                   ADD         #20,R15
    000019CC 64F6                   MOV.L       @R15+,R4
    000019CE 7004                   ADD         #4,R0
    000019D0 64F2                   MOV.L       @R15,R4
    000019D2 0F46                   MOV.L       R4,@(R0,R15)
    000019D4 7FFC                   ADD         #-4,R15
            graphic.c        324                                  vzstep = divff(vzq-vzp, diff);  
    000019D6 E4B4                   MOV         #-76,R4    ; H'FFFFFFB4
    000019D8 644C                   EXTU.B      R4,R4
    000019DA 67F3                   MOV         R15,R7
    000019DC 374C                   ADD         R4,R7
    000019DE 5671                   MOV.L       @(4,R7),R6
    000019E0 6472                   MOV.L       @R7,R4
    000019E2 2F66                   MOV.L       R6,@-R15
    000019E4 2F46                   MOV.L       R4,@-R15
    000019E6 7FF0                   ADD         #-16,R15
    000019E8 E94A                   MOV         #74,R9     ; H'0000004A
    000019EA 4908                   SHLL2       R9
    000019EC 39FC                   ADD         R15,R9
    000019EE 5698                   MOV.L       @(32,R9),R6
    000019F0 529F                   MOV.L       @(60,R9),R2
    000019F2 3268                   SUB         R6,R2
    000019F4 192F                   MOV.L       R2,@(60,R9)
    000019F6 4200                   SHLL        R2
    000019F8 322A                   SUBC        R2,R2
    000019FA 589F                   MOV.L       @(60,R9),R8
    000019FC 69F3                   MOV         R15,R9
    000019FE 7908                   ADD         #8,R9
    00001A00 2F22                   MOV.L       R2,@R15
    00001A02 1F81                   MOV.L       R8,@(4,R15)
    00001A04 2F96                   MOV.L       R9,@-R15
    00001A06 4C0B                   JSR         @R12
    00001A08 E10A                   MOV         #10,R1     ; H'0000000A
    00001A0A 7F0C                   ADD         #12,R15
    00001A0C 6AF3                   MOV         R15,R10
    00001A0E 7A10                   ADD         #16,R10
    00001A10 4E0B                   JSR         @R14
    00001A12 2FA6                   MOV.L       R10,@-R15
    00001A14 7F14                   ADD         #20,R15
    00001A16 6CF6                   MOV.L       @R15+,R12
    00001A18 7004                   ADD         #4,R0
    00001A1A 6CF2                   MOV.L       @R15,R12
    00001A1C 0FC6                   MOV.L       R12,@(R0,R15)
    00001A1E 7F04                   ADD         #4,R15
    00001A20 70D0                   ADD         #-48,R0
    00001A22 0AFE                   MOV.L       @(R0,R15),R10
    00001A24 7004                   ADD         #4,R0
            graphic.c        325    
            graphic.c        326                                  //draw pixels of current row
            graphic.c        327                                  for (ozi = ozp, uzi = uzp, vzi = vzp, xiter = minx; xiter <= maxx; xiter += 1, ozi+=ozstep, uzi+=uzstep, vzi+=vzstep) {
    00001A26 6CB3                   MOV         R11,R12
    00001A28 0BFE                   MOV.L       @(R0,R15),R11
    00001A2A 7004                   ADD         #4,R0
    00001A2C 0EFE                   MOV.L       @(R0,R15),R14; minx
    00001A2E 708C                   ADD         #-116,R0
    00001A30 01FE                   MOV.L       @(R0,R15),R1; maxx
    00001A32 3E17                   CMP/GT      R1,R14
    00001A34 8B01                   BF          L239
    00001A36 A0AB                   BRA         L104
    00001A38 0009                   NOP
    00001A3A              L239:
    00001A3A E0E0                   MOV         #-32,R0    ; H'FFFFFFE0
    00001A3C 600C                   EXTU.B      R0,R0
    00001A3E 02FC                   MOV.B       @(R0,R15),R2; clr
    00001A40 D609                   MOV.L       L201+14,R6 ; _textures
    00001A42 622C                   EXTU.B      R2,R2
    00001A44 4208                   SHLL2       R2
    00001A46 4200                   SHLL        R2
    00001A48 326C                   ADD         R6,R2
    00001A4A 7074                   ADD         #116,R0
    00001A4C 0F26                   MOV.L       R2,@(R0,R15)
    00001A4E E0B4                   MOV         #-76,R0    ; H'FFFFFFB4
    00001A50 600C                   EXTU.B      R0,R0
    00001A52 0FD6                   MOV.L       R13,@(R0,R15)
    00001A54 7004                   ADD         #4,R0
    00001A56 A009                   BRA         L200
    00001A58 0DFE                   MOV.L       @(R0,R15),R13; maxx
    00001A5A              L201:
    00001A5A 00000002               .RES.W      1
    00001A5C <00000000>             .DATA.L     __shard64
    00001A60 <00000000>             .DATA.L     __shlld64
    00001A64 <00000000>             .DATA.L     __div64s
    00001A68 <00000000>             .DATA.L     _textures
    00001A6C              L200:
    00001A6C              L161:
            graphic.c        328                                          if (xiter >= 0 && xiter < 128) { 
    00001A6C 4E11                   CMP/PZ      R14
    00001A6E 8B7D                   BF          L163
    00001A70 E280                   MOV         #-128,R2   ; H'FFFFFF80
    00001A72 622C                   EXTU.B      R2,R2
    00001A74 3E23                   CMP/GE      R2,R14
    00001A76 8979                   BT          L163
            graphic.c        329                                                  zci = divff(int2f(ZREC_MULTIPLIER*ZREC_MULTIPLIER), ozi);
    00001A78 7FF0                   ADD         #-16,R15
    00001A7A 62C3                   MOV         R12,R2
    00001A7C 4200                   SHLL        R2
    00001A7E 322A                   SUBC        R2,R2
    00001A80 2F22                   MOV.L       R2,@R15
    00001A82 1FC1                   MOV.L       R12,@(4,R15)
    00001A84 7FF0                   ADD         #-16,R15
    00001A86 E104                   MOV         #4,R1      ; H'00000004
    00001A88 4128                   SHLL16      R1
    00001A8A 6213                   MOV         R1,R2
    00001A8C 4200                   SHLL        R2
    00001A8E 322A                   SUBC        R2,R2
    00001A90 66F3                   MOV         R15,R6
    00001A92 7608                   ADD         #8,R6
    00001A94 2F22                   MOV.L       R2,@R15
    00001A96 1F11                   MOV.L       R1,@(4,R15)
    00001A98 2F66                   MOV.L       R6,@-R15
    00001A9A D85A                   MOV.L       L202+2,R8  ; __shlld64
    00001A9C 480B                   JSR         @R8
    00001A9E E10A                   MOV         #10,R1     ; H'0000000A
    00001AA0 7F0C                   ADD         #12,R15
    00001AA2 67F3                   MOV         R15,R7
    00001AA4 7710                   ADD         #16,R7
    00001AA6 D958                   MOV.L       L202+6,R9  ; __div64s
    00001AA8 490B                   JSR         @R9
    00001AAA 2F76                   MOV.L       R7,@-R15
    00001AAC 7F14                   ADD         #20,R15
    00001AAE 68F6                   MOV.L       @R15+,R8
    00001AB0 E057                   MOV         #87,R0     ; H'00000057
    00001AB2 64F2                   MOV.L       @R15,R4
    00001AB4 4008                   SHLL2       R0
    00001AB6 0F46                   MOV.L       R4,@(R0,R15)
    00001AB8 7FF4                   ADD         #-12,R15
            graphic.c        330    
            graphic.c        331                                                  ui = divfi(mulff(uzi, zci), ZREC_MULTIPLIER*ZREC_MULTIPLIER); 
            graphic.c        332                                                  vi = divfi(mulff(vzi, zci), ZREC_MULTIPLIER*ZREC_MULTIPLIER);
            graphic.c        333    
            graphic.c        334                                                  Bdisp_SetPoint_VRAM(xiter, yiter, textures[clr][f2int(ui)%8] & (1<<(f2int(vi)%8)));
    00001ABA 34AD                   DMULS.L     R10,R4
    00001ABC 69F3                   MOV         R15,R9
    00001ABE 7908                   ADD         #8,R9
    00001AC0 040A                   STS         MACH,R4
    00001AC2 081A                   STS         MACL,R8
    00001AC4 2F42                   MOV.L       R4,@R15
    00001AC6 1F81                   MOV.L       R8,@(4,R15)
    00001AC8 2F96                   MOV.L       R9,@-R15
    00001ACA D550                   MOV.L       L202+10,R5 ; __shard64
    00001ACC 450B                   JSR         @R5
    00001ACE E10A                   MOV         #10,R1     ; H'0000000A
    00001AD0 7F0C                   ADD         #12,R15
    00001AD2 62F6                   MOV.L       @R15+,R2
    00001AD4 66F6                   MOV.L       @R15+,R6
    00001AD6 4611                   CMP/PZ      R6
    00001AD8 8902                   BT          L166
    00001ADA E2FF                   MOV         #-1,R2     ; H'FFFFFFFF
    00001ADC 622C                   EXTU.B      R2,R2
    00001ADE 362C                   ADD         R2,R6
    00001AE0              L166:
    00001AE0 E7F8                   MOV         #-8,R7     ; H'FFFFFFF8
    00001AE2 467C                   SHAD        R7,R6
    00001AE4 E8F6                   MOV         #-10,R8    ; H'FFFFFFF6
    00001AE6 468C                   SHAD        R8,R6
    00001AE8 4611                   CMP/PZ      R6
    00001AEA 8905                   BT          L168
    00001AEC 6067                   NOT         R6,R0
    00001AEE 7001                   ADD         #1,R0
    00001AF0 C907                   AND         #7,R0
    00001AF2 6607                   NOT         R0,R6
    00001AF4 A002                   BRA         L169
    00001AF6 7601                   ADD         #1,R6
    00001AF8              L168:
    00001AF8 E007                   MOV         #7,R0      ; H'00000007
    00001AFA 2609                   AND         R0,R6
    00001AFC              L169:
    00001AFC E055                   MOV         #85,R0     ; H'00000055
    00001AFE 4008                   SHLL2       R0
    00001B00 07FE                   MOV.L       @(R0,R15),R7
    00001B02 6063                   MOV         R6,R0
    00001B04 097C                   MOV.B       @(R0,R7),R9; textures[]
    00001B06 E057                   MOV         #87,R0     ; H'00000057
    00001B08 699C                   EXTU.B      R9,R9
    00001B0A 4008                   SHLL2       R0
    00001B0C 0F96                   MOV.L       R9,@(R0,R15)
    00001B0E 7FF0                   ADD         #-16,R15
    00001B10 700C                   ADD         #12,R0
    00001B12 05FE                   MOV.L       @(R0,R15),R5
    00001B14 64F3                   MOV         R15,R4
    00001B16 35BD                   DMULS.L     R11,R5
    00001B18 7408                   ADD         #8,R4
    00001B1A 010A                   STS         MACH,R1
    00001B1C 081A                   STS         MACL,R8
    00001B1E 2F12                   MOV.L       R1,@R15
    00001B20 1F81                   MOV.L       R8,@(4,R15)
    00001B22 2F46                   MOV.L       R4,@-R15
    00001B24 D839                   MOV.L       L202+10,R8 ; __shard64
    00001B26 480B                   JSR         @R8
    00001B28 E10A                   MOV         #10,R1     ; H'0000000A
    00001B2A 7F0C                   ADD         #12,R15
    00001B2C 62F6                   MOV.L       @R15+,R2
    00001B2E 66F6                   MOV.L       @R15+,R6
    00001B30 4611                   CMP/PZ      R6
    00001B32 8902                   BT          L171
    00001B34 E2FF                   MOV         #-1,R2     ; H'FFFFFFFF
    00001B36 622C                   EXTU.B      R2,R2
    00001B38 362C                   ADD         R2,R6
    00001B3A              L171:
    00001B3A E9F8                   MOV         #-8,R9     ; H'FFFFFFF8
    00001B3C 469C                   SHAD        R9,R6
    00001B3E E1F6                   MOV         #-10,R1    ; H'FFFFFFF6
    00001B40 461C                   SHAD        R1,R6
    00001B42 4611                   CMP/PZ      R6
    00001B44 8905                   BT          L173
    00001B46 6067                   NOT         R6,R0
    00001B48 7001                   ADD         #1,R0
    00001B4A C907                   AND         #7,R0
    00001B4C 6607                   NOT         R0,R6
    00001B4E A002                   BRA         L174
    00001B50 7601                   ADD         #1,R6
    00001B52              L173:
    00001B52 E007                   MOV         #7,R0      ; H'00000007
    00001B54 2609                   AND         R0,R6
    00001B56              L174:
    00001B56 E057                   MOV         #87,R0     ; H'00000057
    00001B58 4008                   SHLL2       R0
    00001B5A E401                   MOV         #1,R4      ; H'00000001
    00001B5C 446C                   SHAD        R6,R4
    00001B5E 06FE                   MOV.L       @(R0,R15),R6
    00001B60 70B8                   ADD         #-72,R0
    00001B62 D72B                   MOV.L       L202+14,R7 ; _Bdisp_SetPoint_VRAM
    00001B64 05FE                   MOV.L       @(R0,R15),R5; yiter
    00001B66 2649                   AND         R4,R6
    00001B68 470B                   JSR         @R7
    00001B6A 64E3                   MOV         R14,R4
    00001B6C              L163:
    00001B6C E152                   MOV         #82,R1     ; H'00000052
    00001B6E 7E01                   ADD         #1,R14
    00001B70 4108                   SHLL2       R1
    00001B72 31FC                   ADD         R15,R1
    00001B74 3ED7                   CMP/GT      R13,R14
    00001B76 6812                   MOV.L       @R1,R8
    00001B78 5911                   MOV.L       @(4,R1),R9
    00001B7A 5412                   MOV.L       @(8,R1),R4
    00001B7C 3C8C                   ADD         R8,R12
    00001B7E 3A9C                   ADD         R9,R10
    00001B80 8D02                   BT/S        L240
    00001B82 3B4C                   ADD         R4,R11
    00001B84 AF72                   BRA         L161
    00001B86 0009                   NOP
    00001B88              L240:
    00001B88 E0B4                   MOV         #-76,R0    ; H'FFFFFFB4
    00001B8A 600C                   EXTU.B      R0,R0
    00001B8C A000                   BRA         L104
    00001B8E 0DFE                   MOV.L       @(R0,R15),R13
    00001B90              L110:
    00001B90              L104:
    00001B90 E045                   MOV         #69,R0     ; H'00000045
    00001B92 4008                   SHLL2       R0
    00001B94 02FE                   MOV.L       @(R0,R15),R2; yiter
    00001B96 7201                   ADD         #1,R2
    00001B98 0F26                   MOV.L       R2,@(R0,R15); yiter
    00001B9A 704C                   ADD         #76,R0
    00001B9C 0CFE                   MOV.L       @(R0,R15),R12
    00001B9E 32C3                   CMP/GE      R12,R2
    00001BA0 8901                   BT          L241
    00001BA2 A8C4                   BRA         L103
    00001BA4 0009                   NOP
    00001BA6              L241:
    00001BA6              L69:
    00001BA6 E1D8                   MOV         #-40,R1    ; H'FFFFFFD8
    00001BA8 611C                   EXTU.B      R1,R1
    00001BAA 31FC                   ADD         R15,R1
    00001BAC 6512                   MOV.L       @R1,R5     ; curr_tridx
    00001BAE DE19                   MOV.L       L202+18,R14; _zbuf_idx
    00001BB0 7501                   ADD         #1,R5
    00001BB2 2152                   MOV.L       R5,@R1     ; curr_tridx
    00001BB4 67E1                   MOV.W       @R14,R7    ; zbuf_idx
    00001BB6 627D                   EXTU.W      R7,R2
    00001BB8 3523                   CMP/GE      R2,R5
    00001BBA 8902                   BT          L242
    00001BBC D316                   MOV.L       L202+22,R3 ; L68
    00001BBE 432B                   JMP         @R3
    00001BC0 0009                   NOP
    00001BC2              L242:
    00001BC2              L67:
    00001BC2 E0D4                   MOV         #-44,R0    ; H'FFFFFFD4
    00001BC4 600C                   EXTU.B      R0,R0
    00001BC6 0EFE                   MOV.L       @(R0,R15),R14; curr_zidx
    00001BC8 7EFF                   ADD         #-1,R14
    00001BCA 4E11                   CMP/PZ      R14
    00001BCC 8F03                   BF/S        L243
    00001BCE 0FE6                   MOV.L       R14,@(R0,R15); curr_zidx
    00001BD0 D312                   MOV.L       L202+26,R3 ; L66
    00001BD2 432B                   JMP         @R3
    00001BD4 0009                   NOP
    00001BD6              L243:
    00001BD6 E0DC                   MOV         #-36,R0    ; H'FFFFFFDC
    00001BD8 600C                   EXTU.B      R0,R0
    00001BDA 0EFE                   MOV.L       @(R0,R15),R14
    00001BDC              L65:
    00001BDC D610                   MOV.L       L202+30,R6 ; _lock
            graphic.c        335                                                  //px_cnt++;
            graphic.c        336                                          }
            graphic.c        337                                  }
            graphic.c        338                          }               
            graphic.c        339                  }       
            graphic.c        340          }
            graphic.c        341          
            graphic.c        342          lock = 0;
    00001BDE E200                   MOV         #0,R2      ; H'00000000
            graphic.c        343    
            graphic.c        344          return q_cnt;
    00001BE0 E0D0                   MOV         #-48,R0    ; H'FFFFFFD0
    00001BE2 600C                   EXTU.B      R0,R0
    00001BE4 2622                   MOV.L       R2,@R6     ; lock
    00001BE6 00FE                   MOV.L       @(R0,R15),R0; q_cnt
    00001BE8 930B                   MOV.W       L202,R3    ; H'0164
    00001BEA 3F3C                   ADD         R3,R15
    00001BEC 4F06                   LDS.L       @R15+,MACH
    00001BEE 4F16                   LDS.L       @R15+,MACL
    00001BF0 4F26                   LDS.L       @R15+,PR
    00001BF2 6EF6                   MOV.L       @R15+,R14
    00001BF4 6DF6                   MOV.L       @R15+,R13
    00001BF6 6CF6                   MOV.L       @R15+,R12
    00001BF8 6BF6                   MOV.L       @R15+,R11
    00001BFA 6AF6                   MOV.L       @R15+,R10
    00001BFC 69F6                   MOV.L       @R15+,R9
            graphic.c        345    }
    00001BFE 000B                   RTS
    00001C00 68F6                   MOV.L       @R15+,R8
    00001C02              L202:
    00001C02 0164                   .DATA.W     H'0164
    00001C04 <00000000>             .DATA.L     __shlld64
    00001C08 <00000000>             .DATA.L     __div64s
    00001C0C <00000000>             .DATA.L     __shard64
    00001C10 <00000000>             .DATA.L     _Bdisp_SetPoint_VRAM
    00001C14 <00000000>             .DATA.L     _zbuf_idx
    00001C18 <00000000>             .DATA.L     L68
    00001C1C <00000000>             .DATA.L     L66
    00001C20 <00000000>             .DATA.L     _lock
            graphic.c        346    
            graphic.c        347    unsigned int renderblock(int x, int y, int z, int tx) {
    00001C24              _renderblock:                    ; function: renderblock
                                                           ; frame size=308
    00001C24 2F86                   MOV.L       R8,@-R15
    00001C26 2F96                   MOV.L       R9,@-R15
    00001C28 2FA6                   MOV.L       R10,@-R15
    00001C2A 2FB6                   MOV.L       R11,@-R15
    00001C2C 2FC6                   MOV.L       R12,@-R15
    00001C2E 2FD6                   MOV.L       R13,@-R15
    00001C30 2FE6                   MOV.L       R14,@-R15
    00001C32 4F22                   STS.L       PR,@-R15
    00001C34 4F12                   STS.L       MACL,@-R15
    00001C36 93D9                   MOV.W       L204,R3    ; H'FF18
    00001C38 3F3C                   ADD         R3,R15
    00001C3A D1D6                   MOV.L       L206+2,R1  ; _zbuf
    00001C3C 6B73                   MOV         R7,R11
    00001C3E 6943                   MOV         R4,R9
    00001C40 D7D5                   MOV.L       L206+6,R7  ; _memset
    00001C42 6412                   MOV.L       @R1,R4     ; zbuf
    00001C44 6C63                   MOV         R6,R12
    00001C46 6E53                   MOV         R5,R14
    00001C48 D6D4                   MOV.L       L206+10,R6 ; H'00008400
    00001C4A 470B                   JSR         @R7
    00001C4C E500                   MOV         #0,R5      ; H'00000000
    00001C4E DDD4                   MOV.L       L206+14,R13; _zbuf_idx
    00001C50 D2D4                   MOV.L       L206+18,R2 ; _zindex_max
    00001C52 E800                   MOV         #0,R8      ; H'00000000
    00001C54 E3DC                   MOV         #-36,R3    ; H'FFFFFFDC
    00001C56 2D81                   MOV.W       R8,@R13    ; zbuf_idx
    00001C58 2281                   MOV.W       R8,@R2     ; zindex_max
    00001C5A D8D3                   MOV.L       L206+22,R8 ; _uuid
            graphic.c        348          g_clrbuf();
            graphic.c        349          
            graphic.c        350          //front
            graphic.c        351          g_addtriangle(ivec3f(int2f(1+x), int2f(1+y), int2f(0+z)), ivec3f(int2f(1+x), int2f(0+y), int2f(0+z)), ivec3f(int2f(0+x), int2f(1+y), int2f(0+z)), tx);
    00001C5C 4918                   SHLL8       R9
    00001C5E 633C                   EXTU.B      R3,R3
    00001C60 4E18                   SHLL8       R14
    00001C62 4C18                   SHLL8       R12
    00001C64 EA04                   MOV         #4,R10     ; H'00000004
    00001C66 6BBC                   EXTU.B      R11,R11
    00001C68 ED01                   MOV         #1,R13     ; H'00000001
    00001C6A 4908                   SHLL2       R9
    00001C6C 33FC                   ADD         R15,R3
    00001C6E 4E08                   SHLL2       R14
    00001C70 4C08                   SHLL2       R12
    00001C72 4A18                   SHLL8       R10
    00001C74 60B3                   MOV         R11,R0
    00001C76 28D2                   MOV.L       R13,@R8    ; uuid
    00001C78 6493                   MOV         R9,R4
    00001C7A 2392                   MOV.L       R9,@R3
    00001C7C 13E1                   MOV.L       R14,@(4,R3)
    00001C7E 68C3                   MOV         R12,R8
    00001C80 39AC                   ADD         R10,R9
    00001C82 3EAC                   ADD         R10,R14
    00001C84 8038                   MOV.B       R0,@(8,R3)
    00001C86 7FF4                   ADD         #-12,R15
    00001C88 DDC8                   MOV.L       L206+26,R13; _ivec3f
    00001C8A 61F3                   MOV         R15,R1
    00001C8C 2F16                   MOV.L       R1,@-R15
    00001C8E 66C3                   MOV         R12,R6
    00001C90 4D0B                   JSR         @R13
    00001C92 65E3                   MOV         R14,R5
    00001C94 7FF8                   ADD         #-8,R15
    00001C96 65F3                   MOV         R15,R5
    00001C98 2F56                   MOV.L       R5,@-R15
    00001C9A E0FC                   MOV         #-4,R0     ; H'FFFFFFFC
    00001C9C 600C                   EXTU.B      R0,R0
    00001C9E 05FE                   MOV.L       @(R0,R15),R5
    00001CA0 66C3                   MOV         R12,R6
    00001CA2 4D0B                   JSR         @R13
    00001CA4 6493                   MOV         R9,R4
    00001CA6 7FF8                   ADD         #-8,R15
    00001CA8 67F3                   MOV         R15,R7
    00001CAA 2F76                   MOV.L       R7,@-R15
    00001CAC 66C3                   MOV         R12,R6
    00001CAE 6493                   MOV         R9,R4
    00001CB0 4D0B                   JSR         @R13
    00001CB2 65E3                   MOV         R14,R5
    00001CB4 7F04                   ADD         #4,R15
    00001CB6 D3BE                   MOV.L       L206+30,R3 ; _g_addtriangle
    00001CB8 430B                   JSR         @R3
    00001CBA 64B3                   MOV         R11,R4
    00001CBC 7F18                   ADD         #24,R15
            graphic.c        352          g_addtriangle(ivec3f(int2f(0+x), int2f(0+y), int2f(0+z)), ivec3f(int2f(0+x), int2f(1+y), int2f(0+z)), ivec3f(int2f(1+x), int2f(0+y), int2f(0+z)), tx+0);
    00001CBE 61F3                   MOV         R15,R1
    00001CC0 2F16                   MOV.L       R1,@-R15
    00001CC2 E0F0                   MOV         #-16,R0    ; H'FFFFFFF0
    00001CC4 600C                   EXTU.B      R0,R0
    00001CC6 05FE                   MOV.L       @(R0,R15),R5
    00001CC8 66C3                   MOV         R12,R6
    00001CCA 4D0B                   JSR         @R13
    00001CCC 6493                   MOV         R9,R4
    00001CCE 7FF8                   ADD         #-8,R15
    00001CD0 67F3                   MOV         R15,R7
    00001CD2 2F76                   MOV.L       R7,@-R15
    00001CD4 E0F8                   MOV         #-8,R0     ; H'FFFFFFF8
    00001CD6 600C                   EXTU.B      R0,R0
    00001CD8 04FE                   MOV.L       @(R0,R15),R4
    00001CDA 66C3                   MOV         R12,R6
    00001CDC 4D0B                   JSR         @R13
    00001CDE 65E3                   MOV         R14,R5
    00001CE0 7FF8                   ADD         #-8,R15
    00001CE2 61F3                   MOV         R15,R1
    00001CE4 2F16                   MOV.L       R1,@-R15
    00001CE6 E041                   MOV         #65,R0     ; H'00000041
    00001CE8 4008                   SHLL2       R0
    00001CEA 04FE                   MOV.L       @(R0,R15),R4
    00001CEC 7004                   ADD         #4,R0
    00001CEE 05FE                   MOV.L       @(R0,R15),R5
    00001CF0 4D0B                   JSR         @R13
    00001CF2 66C3                   MOV         R12,R6
    00001CF4 7F04                   ADD         #4,R15
    00001CF6 D3AE                   MOV.L       L206+30,R3 ; _g_addtriangle
    00001CF8 430B                   JSR         @R3
    00001CFA 64B3                   MOV         R11,R4
    00001CFC 7F18                   ADD         #24,R15
    00001CFE 67F3                   MOV         R15,R7
            graphic.c        353    
            graphic.c        354          //right
            graphic.c        355          g_addtriangle(ivec3f(int2f(0+x), int2f(1+y), int2f(0+z)), ivec3f(int2f(0+x), int2f(0+y), int2f(0+z)), ivec3f(int2f(0+x), int2f(1+y), int2f(1+z)), tx);
    00001D00 3CAC                   ADD         R10,R12
    00001D02 2F76                   MOV.L       R7,@-R15
    00001D04 E0EC                   MOV         #-20,R0    ; H'FFFFFFEC
    00001D06 600C                   EXTU.B      R0,R0
    00001D08 04FE                   MOV.L       @(R0,R15),R4
    00001D0A 65E3                   MOV         R14,R5
    00001D0C 4D0B                   JSR         @R13
    00001D0E 66C3                   MOV         R12,R6
    00001D10 7FF8                   ADD         #-8,R15
    00001D12 6AF3                   MOV         R15,R10
    00001D14 2FA6                   MOV.L       R10,@-R15
    00001D16 E0F8                   MOV         #-8,R0     ; H'FFFFFFF8
    00001D18 600C                   EXTU.B      R0,R0
    00001D1A 04FE                   MOV.L       @(R0,R15),R4
    00001D1C 7004                   ADD         #4,R0
    00001D1E 05FE                   MOV.L       @(R0,R15),R5
    00001D20 4D0B                   JSR         @R13
    00001D22 6683                   MOV         R8,R6
    00001D24 7FF8                   ADD         #-8,R15
    00001D26 61F3                   MOV         R15,R1
    00001D28 2F16                   MOV.L       R1,@-R15
    00001D2A E041                   MOV         #65,R0     ; H'00000041
    00001D2C 4008                   SHLL2       R0
    00001D2E 04FE                   MOV.L       @(R0,R15),R4
    00001D30 6683                   MOV         R8,R6
    00001D32 4D0B                   JSR         @R13
    00001D34 65E3                   MOV         R14,R5
    00001D36 7F04                   ADD         #4,R15
    00001D38 D39D                   MOV.L       L206+30,R3 ; _g_addtriangle
    00001D3A 430B                   JSR         @R3
    00001D3C 64B3                   MOV         R11,R4
    00001D3E 7F18                   ADD         #24,R15
            graphic.c        356          g_addtriangle(ivec3f(int2f(0+x), int2f(0+y), int2f(1+z)), ivec3f(int2f(0+x), int2f(1+y), int2f(1+z)), ivec3f(int2f(0+x), int2f(0+y), int2f(0+z)), tx+0);
    00001D40 67F3                   MOV         R15,R7
    00001D42 2F76                   MOV.L       R7,@-R15
    00001D44 E0EC                   MOV         #-20,R0    ; H'FFFFFFEC
    00001D46 600C                   EXTU.B      R0,R0
    00001D48 04FE                   MOV.L       @(R0,R15),R4
    00001D4A 7004                   ADD         #4,R0
    00001D4C 05FE                   MOV.L       @(R0,R15),R5
    00001D4E 4D0B                   JSR         @R13
    00001D50 6683                   MOV         R8,R6
    00001D52 7FF8                   ADD         #-8,R15
    00001D54 6AF3                   MOV         R15,R10
    00001D56 2FA6                   MOV.L       R10,@-R15
    00001D58 E0F8                   MOV         #-8,R0     ; H'FFFFFFF8
    00001D5A 600C                   EXTU.B      R0,R0
    00001D5C 04FE                   MOV.L       @(R0,R15),R4
    00001D5E 65E3                   MOV         R14,R5
    00001D60 4D0B                   JSR         @R13
    00001D62 66C3                   MOV         R12,R6
    00001D64 7FF8                   ADD         #-8,R15
    00001D66 61F3                   MOV         R15,R1
    00001D68 2F16                   MOV.L       R1,@-R15
    00001D6A E041                   MOV         #65,R0     ; H'00000041
    00001D6C 4008                   SHLL2       R0
    00001D6E 04FE                   MOV.L       @(R0,R15),R4
    00001D70 7004                   ADD         #4,R0
    00001D72 05FE                   MOV.L       @(R0,R15),R5
    00001D74 4D0B                   JSR         @R13
    00001D76 66C3                   MOV         R12,R6
    00001D78 7F04                   ADD         #4,R15
    00001D7A D38D                   MOV.L       L206+30,R3 ; _g_addtriangle
    00001D7C 430B                   JSR         @R3
    00001D7E 64B3                   MOV         R11,R4
    00001D80 7F18                   ADD         #24,R15
            graphic.c        357    
            graphic.c        358          //top
            graphic.c        359          g_addtriangle(ivec3f(int2f(1+x), int2f(1+y), int2f(0+z)), ivec3f(int2f(0+x), int2f(1+y), int2f(0+z)), ivec3f(int2f(1+x), int2f(1+y), int2f(1+z)), tx);
    00001D82 67F3                   MOV         R15,R7
    00001D84 2F76                   MOV.L       R7,@-R15
    00001D86 6493                   MOV         R9,R4
    00001D88 65E3                   MOV         R14,R5
    00001D8A 4D0B                   JSR         @R13
    00001D8C 66C3                   MOV         R12,R6
    00001D8E 7FF8                   ADD         #-8,R15
    00001D90 6AF3                   MOV         R15,R10
    00001D92 2FA6                   MOV.L       R10,@-R15
    00001D94 E0F8                   MOV         #-8,R0     ; H'FFFFFFF8
    00001D96 600C                   EXTU.B      R0,R0
    00001D98 04FE                   MOV.L       @(R0,R15),R4
    00001D9A 6683                   MOV         R8,R6
    00001D9C 4D0B                   JSR         @R13
    00001D9E 65E3                   MOV         R14,R5
    00001DA0 7FF8                   ADD         #-8,R15
    00001DA2 61F3                   MOV         R15,R1
    00001DA4 2F16                   MOV.L       R1,@-R15
    00001DA6 6683                   MOV         R8,R6
    00001DA8 6493                   MOV         R9,R4
    00001DAA 4D0B                   JSR         @R13
    00001DAC 65E3                   MOV         R14,R5
    00001DAE 7F04                   ADD         #4,R15
    00001DB0 D37F                   MOV.L       L206+30,R3 ; _g_addtriangle
    00001DB2 430B                   JSR         @R3
    00001DB4 64B3                   MOV         R11,R4
    00001DB6 7F18                   ADD         #24,R15
            graphic.c        360          g_addtriangle(ivec3f(int2f(0+x), int2f(1+y), int2f(1+z)), ivec3f(int2f(1+x), int2f(1+y), int2f(1+z)), ivec3f(int2f(0+x), int2f(1+y), int2f(0+z)), tx+0);
    00001DB8 67F3                   MOV         R15,R7
    00001DBA 2F76                   MOV.L       R7,@-R15
    00001DBC E0EC                   MOV         #-20,R0    ; H'FFFFFFEC
    00001DBE 600C                   EXTU.B      R0,R0
    00001DC0 04FE                   MOV.L       @(R0,R15),R4
    00001DC2 6683                   MOV         R8,R6
    00001DC4 4D0B                   JSR         @R13
    00001DC6 65E3                   MOV         R14,R5
    00001DC8 7FF8                   ADD         #-8,R15
    00001DCA 6AF3                   MOV         R15,R10
    00001DCC 2FA6                   MOV.L       R10,@-R15
    00001DCE 6493                   MOV         R9,R4
    00001DD0 65E3                   MOV         R14,R5
    00001DD2 4D0B                   JSR         @R13
    00001DD4 66C3                   MOV         R12,R6
    00001DD6 7FF8                   ADD         #-8,R15
    00001DD8 61F3                   MOV         R15,R1
    00001DDA 2F16                   MOV.L       R1,@-R15
    00001DDC E041                   MOV         #65,R0     ; H'00000041
    00001DDE 4008                   SHLL2       R0
    00001DE0 04FE                   MOV.L       @(R0,R15),R4
    00001DE2 65E3                   MOV         R14,R5
    00001DE4 4D0B                   JSR         @R13
    00001DE6 66C3                   MOV         R12,R6
    00001DE8 A001                   BRA         L203
    00001DEA 0009                   NOP
    00001DEC              L204:
    00001DEC FF18                   .DATA.W     H'FF18
    00001DEE              L203:
    00001DEE 7F04                   ADD         #4,R15
    00001DF0 D36F                   MOV.L       L206+30,R3 ; _g_addtriangle
    00001DF2 430B                   JSR         @R3
    00001DF4 64B3                   MOV         R11,R4
    00001DF6 7F18                   ADD         #24,R15
            graphic.c        361          
            graphic.c        362          //back
            graphic.c        363          g_addtriangle(ivec3f(int2f(0+x), int2f(1+y), int2f(1+z)), ivec3f(int2f(0+x), int2f(0+y), int2f(1+z)), ivec3f(int2f(1+x), int2f(1+y), int2f(1+z)), tx);
    00001DF8 67F3                   MOV         R15,R7
    00001DFA 2F76                   MOV.L       R7,@-R15
    00001DFC 6493                   MOV         R9,R4
    00001DFE 65E3                   MOV         R14,R5
    00001E00 4D0B                   JSR         @R13
    00001E02 66C3                   MOV         R12,R6
    00001E04 7FF8                   ADD         #-8,R15
    00001E06 6AF3                   MOV         R15,R10
    00001E08 2FA6                   MOV.L       R10,@-R15
    00001E0A E0F8                   MOV         #-8,R0     ; H'FFFFFFF8
    00001E0C 600C                   EXTU.B      R0,R0
    00001E0E 04FE                   MOV.L       @(R0,R15),R4
    00001E10 7004                   ADD         #4,R0
    00001E12 05FE                   MOV.L       @(R0,R15),R5
    00001E14 4D0B                   JSR         @R13
    00001E16 66C3                   MOV         R12,R6
    00001E18 7FF8                   ADD         #-8,R15
    00001E1A 61F3                   MOV         R15,R1
    00001E1C 2F16                   MOV.L       R1,@-R15
    00001E1E E041                   MOV         #65,R0     ; H'00000041
    00001E20 4008                   SHLL2       R0
    00001E22 04FE                   MOV.L       @(R0,R15),R4
    00001E24 65E3                   MOV         R14,R5
    00001E26 4D0B                   JSR         @R13
    00001E28 66C3                   MOV         R12,R6
    00001E2A 7F04                   ADD         #4,R15
    00001E2C D360                   MOV.L       L206+30,R3 ; _g_addtriangle
    00001E2E 430B                   JSR         @R3
    00001E30 64B3                   MOV         R11,R4
    00001E32 7F18                   ADD         #24,R15
            graphic.c        364          g_addtriangle(ivec3f(int2f(1+x), int2f(0+y), int2f(1+z)), ivec3f(int2f(1+x), int2f(1+y), int2f(1+z)), ivec3f(int2f(0+x), int2f(0+y), int2f(1+z)), tx+0);
    00001E34 67F3                   MOV         R15,R7
    00001E36 2F76                   MOV.L       R7,@-R15
    00001E38 E0EC                   MOV         #-20,R0    ; H'FFFFFFEC
    00001E3A 600C                   EXTU.B      R0,R0
    00001E3C 04FE                   MOV.L       @(R0,R15),R4
    00001E3E 7004                   ADD         #4,R0
    00001E40 05FE                   MOV.L       @(R0,R15),R5
    00001E42 4D0B                   JSR         @R13
    00001E44 66C3                   MOV         R12,R6
    00001E46 7FF8                   ADD         #-8,R15
    00001E48 6AF3                   MOV         R15,R10
    00001E4A 2FA6                   MOV.L       R10,@-R15
    00001E4C 6493                   MOV         R9,R4
    00001E4E 65E3                   MOV         R14,R5
    00001E50 4D0B                   JSR         @R13
    00001E52 66C3                   MOV         R12,R6
    00001E54 7FF8                   ADD         #-8,R15
    00001E56 61F3                   MOV         R15,R1
    00001E58 2F16                   MOV.L       R1,@-R15
    00001E5A E042                   MOV         #66,R0     ; H'00000042
    00001E5C 4008                   SHLL2       R0
    00001E5E 05FE                   MOV.L       @(R0,R15),R5
    00001E60 6493                   MOV         R9,R4
    00001E62 4D0B                   JSR         @R13
    00001E64 66C3                   MOV         R12,R6
    00001E66 7F04                   ADD         #4,R15
    00001E68 D351                   MOV.L       L206+30,R3 ; _g_addtriangle
    00001E6A 430B                   JSR         @R3
    00001E6C 64B3                   MOV         R11,R4
    00001E6E 7F18                   ADD         #24,R15
            graphic.c        365    
            graphic.c        366          //left
            graphic.c        367          g_addtriangle(ivec3f(int2f(1+x), int2f(1+y), int2f(1+z)), ivec3f(int2f(1+x), int2f(0+y), int2f(1+z)), ivec3f(int2f(1+x), int2f(1+y), int2f(0+z)), tx);
    00001E70 67F3                   MOV         R15,R7
    00001E72 2F76                   MOV.L       R7,@-R15
    00001E74 6683                   MOV         R8,R6
    00001E76 6493                   MOV         R9,R4
    00001E78 4D0B                   JSR         @R13
    00001E7A 65E3                   MOV         R14,R5
    00001E7C 7FF8                   ADD         #-8,R15
    00001E7E 6AF3                   MOV         R15,R10
    00001E80 2FA6                   MOV.L       R10,@-R15
    00001E82 E0FC                   MOV         #-4,R0     ; H'FFFFFFFC
    00001E84 600C                   EXTU.B      R0,R0
    00001E86 05FE                   MOV.L       @(R0,R15),R5
    00001E88 6493                   MOV         R9,R4
    00001E8A 4D0B                   JSR         @R13
    00001E8C 66C3                   MOV         R12,R6
    00001E8E 7FF8                   ADD         #-8,R15
    00001E90 61F3                   MOV         R15,R1
    00001E92 2F16                   MOV.L       R1,@-R15
    00001E94 6493                   MOV         R9,R4
    00001E96 65E3                   MOV         R14,R5
    00001E98 4D0B                   JSR         @R13
    00001E9A 66C3                   MOV         R12,R6
    00001E9C 7F04                   ADD         #4,R15
    00001E9E D344                   MOV.L       L206+30,R3 ; _g_addtriangle
    00001EA0 430B                   JSR         @R3
    00001EA2 64B3                   MOV         R11,R4
    00001EA4 7F24                   ADD         #36,R15
            graphic.c        368          g_addtriangle(ivec3f(int2f(1+x), int2f(0+y), int2f(0+z)), ivec3f(int2f(1+x), int2f(1+y), int2f(0+z)), ivec3f(int2f(1+x), int2f(0+y), int2f(1+z)), tx+0);        
    00001EA6 6AF3                   MOV         R15,R10
    00001EA8 2FA6                   MOV.L       R10,@-R15
    00001EAA E0E4                   MOV         #-28,R0    ; H'FFFFFFE4
    00001EAC 600C                   EXTU.B      R0,R0
    00001EAE 05FE                   MOV.L       @(R0,R15),R5
    00001EB0 6683                   MOV         R8,R6
    00001EB2 4D0B                   JSR         @R13
    00001EB4 6493                   MOV         R9,R4
    00001EB6 7F04                   ADD         #4,R15
    00001EB8 6BF3                   MOV         R15,R11
    00001EBA 7B10                   ADD         #16,R11
    00001EBC 2FB6                   MOV.L       R11,@-R15
    00001EBE 6683                   MOV         R8,R6
    00001EC0 6493                   MOV         R9,R4
    00001EC2 4D0B                   JSR         @R13
    00001EC4 65E3                   MOV         R14,R5
    00001EC6 7F04                   ADD         #4,R15
    00001EC8 6EF3                   MOV         R15,R14
    00001ECA 7E20                   ADD         #32,R14
    00001ECC 2FE6                   MOV.L       R14,@-R15
    00001ECE E0E4                   MOV         #-28,R0    ; H'FFFFFFE4
    00001ED0 600C                   EXTU.B      R0,R0
    00001ED2 05FE                   MOV.L       @(R0,R15),R5
    00001ED4 6493                   MOV         R9,R4
    00001ED6 4D0B                   JSR         @R13
    00001ED8 66C3                   MOV         R12,R6
    00001EDA 7F04                   ADD         #4,R15
    00001EDC 5EF2                   MOV.L       @(8,R15),R14
    00001EDE 52F6                   MOV.L       @(24,R15),R2
    00001EE0 1FED                   MOV.L       R14,@(52,R15); (part of)a
    00001EE2 6EF3                   MOV         R15,R14
    00001EE4 7E38                   ADD         #56,R14
    00001EE6 1E22                   MOV.L       R2,@(8,R14); (part of)b
    00001EE8 61F3                   MOV         R15,R1
    00001EEA 52F8                   MOV.L       @(32,R15),R2
    00001EEC 7144                   ADD         #68,R1
    00001EEE 6BF2                   MOV.L       @R15,R11
    00001EF0 5AF9                   MOV.L       @(36,R15),R10
    00001EF2 2122                   MOV.L       R2,@R1     ; (part of)c
    00001EF4 52FA                   MOV.L       @(40,R15),R2
    00001EF6 1FBB                   MOV.L       R11,@(44,R15); (part of)a
    00001EF8 5BF5                   MOV.L       @(20,R15),R11
    00001EFA 11A1                   MOV.L       R10,@(4,R1); (part of)c
    00001EFC 1122                   MOV.L       R2,@(8,R1) ; (part of)c
    00001EFE D128                   MOV.L       L206+14,R1 ; _zbuf_idx
    00001F00 1EB1                   MOV.L       R11,@(4,R14); (part of)b
    00001F02 6B11                   MOV.W       @R1,R11    ; zbuf_idx
    00001F04 55F1                   MOV.L       @(4,R15),R5
    00001F06 62BD                   EXTU.W      R11,R2
    00001F08 EB03                   MOV         #3,R11     ; H'00000003
    00001F0A 4B18                   SHLL8       R11
    00001F0C 7BFF                   ADD         #-1,R11
    00001F0E 32B3                   CMP/GE      R11,R2
    00001F10 57F4                   MOV.L       @(16,R15),R7
    00001F12 E0E4                   MOV         #-28,R0    ; H'FFFFFFE4
    00001F14 600C                   EXTU.B      R0,R0
    00001F16 1F5C                   MOV.L       R5,@(48,R15); (part of)a
    00001F18 2E72                   MOV.L       R7,@R14    ; (part of)b
    00001F1A 8D63                   BT/S        L179
    00001F1C 0EFC                   MOV.B       @(R0,R15),R14
    00001F1E 7FF4                   ADD         #-12,R15
    00001F20 62F3                   MOV         R15,R2
    00001F22 7250                   ADD         #80,R2
    00001F24 6422                   MOV.L       @R2,R4     ; (part of)c
    00001F26 5A21                   MOV.L       @(4,R2),R10; (part of)c
    00001F28 5122                   MOV.L       @(8,R2),R1 ; (part of)c
    00001F2A 2F42                   MOV.L       R4,@R15
    00001F2C 1FA1                   MOV.L       R10,@(4,R15)
    00001F2E 1F12                   MOV.L       R1,@(8,R15)
    00001F30 7FF4                   ADD         #-12,R15
    00001F32 64F3                   MOV         R15,R4
    00001F34 7450                   ADD         #80,R4
    00001F36 6542                   MOV.L       @R4,R5     ; (part of)b
    00001F38 5741                   MOV.L       @(4,R4),R7 ; (part of)b
    00001F3A 5642                   MOV.L       @(8,R4),R6 ; (part of)b
    00001F3C 2F52                   MOV.L       R5,@R15
    00001F3E 1F71                   MOV.L       R7,@(4,R15)
    00001F40 1F62                   MOV.L       R6,@(8,R15)
    00001F42 7FF4                   ADD         #-12,R15
    00001F44 64F3                   MOV         R15,R4
    00001F46 7450                   ADD         #80,R4
    00001F48 5A41                   MOV.L       @(4,R4),R10; (part of)a
    00001F4A E2D4                   MOV         #-44,R2    ; H'FFFFFFD4
    00001F4C 6742                   MOV.L       @R4,R7     ; (part of)a
    00001F4E 1FA1                   MOV.L       R10,@(4,R15)
    00001F50 5A42                   MOV.L       @(8,R4),R10; (part of)a
    00001F52 622C                   EXTU.B      R2,R2
    00001F54 61F3                   MOV         R15,R1
    00001F56 312C                   ADD         R2,R1
    00001F58 2F72                   MOV.L       R7,@R15
    00001F5A 1FA2                   MOV.L       R10,@(8,R15)
    00001F5C 64EC                   EXTU.B      R14,R4
    00001F5E 2F16                   MOV.L       R1,@-R15
    00001F60 D211                   MOV.L       L206+22,R2 ; _uuid
    00001F62 DA14                   MOV.L       L206+34,R10; _itrianglef
    00001F64 4A0B                   JSR         @R10
    00001F66 6522                   MOV.L       @R2,R5     ; uuid
    00001F68 7F28                   ADD         #40,R15
    00001F6A DA0D                   MOV.L       L206+14,R10; _zbuf_idx
    00001F6C E52C                   MOV         #44,R5     ; H'0000002C
    00001F6E 64A1                   MOV.W       @R10,R4    ; zbuf_idx
    00001F70 614D                   EXTU.W      R4,R1
    00001F72 0517                   MUL.L       R1,R5
    00001F74 7401                   ADD         #1,R4
    00001F76 65F3                   MOV         R15,R5
    00001F78 2A41                   MOV.W       R4,@R10    ; zbuf_idx
    00001F7A EAB0                   MOV         #-80,R10   ; H'FFFFFFB0
    00001F7C D105                   MOV.L       L206+2,R1  ; _zbuf
    00001F7E 6AAC                   EXTU.B      R10,R10
    00001F80 35AC                   ADD         R10,R5
    00001F82 6412                   MOV.L       @R1,R4     ; zbuf
    00001F84 071A                   STS         MACL,R7
    00001F86 6152                   MOV.L       @R5,R1
    00001F88 347C                   ADD         R7,R4
    00001F8A 5A51                   MOV.L       @(4,R5),R10
    00001F8C 2412                   MOV.L       R1,@R4     ; (part of)zbuf[]
    00001F8E A013                   BRA         L205
    00001F90 5152                   MOV.L       @(8,R5),R1
    00001F92              L206:
    00001F92 00000002               .RES.W      1
    00001F94 <00000000>             .DATA.L     _zbuf
    00001F98 <00000000>             .DATA.L     _memset
    00001F9C 00008400               .DATA.L     H'00008400
    00001FA0 <00000000>             .DATA.L     _zbuf_idx
    00001FA4 <00000000>             .DATA.L     _zindex_max
    00001FA8 <00000000>             .DATA.L     _uuid
    00001FAC <00000000>             .DATA.L     _ivec3f
    00001FB0 <00000000>             .DATA.L     _g_addtriangle
    00001FB4 <00000000>             .DATA.L     _itrianglef
    00001FB8              L205:
    00001FB8 5653                   MOV.L       @(12,R5),R6
    00001FBA 14A1                   MOV.L       R10,@(4,R4); (part of)zbuf[]
    00001FBC 1412                   MOV.L       R1,@(8,R4) ; (part of)zbuf[]
    00001FBE 1463                   MOV.L       R6,@(12,R4); (part of)zbuf[]
    00001FC0 5754                   MOV.L       @(16,R5),R7
    00001FC2 5655                   MOV.L       @(20,R5),R6
    00001FC4 5256                   MOV.L       @(24,R5),R2
    00001FC6 1474                   MOV.L       R7,@(16,R4); (part of)zbuf[]
    00001FC8 1465                   MOV.L       R6,@(20,R4); (part of)zbuf[]
    00001FCA 5657                   MOV.L       @(28,R5),R6
    00001FCC 1426                   MOV.L       R2,@(24,R4); (part of)zbuf[]
    00001FCE 5258                   MOV.L       @(32,R5),R2
    00001FD0 1467                   MOV.L       R6,@(28,R4); (part of)zbuf[]
    00001FD2 5659                   MOV.L       @(36,R5),R6
    00001FD4 1428                   MOV.L       R2,@(32,R4); (part of)zbuf[]
    00001FD6 525A                   MOV.L       @(40,R5),R2
    00001FD8 D78F                   MOV.L       L207+4,R7  ; _uuid
    00001FDA 1469                   MOV.L       R6,@(36,R4); (part of)zbuf[]
    00001FDC 142A                   MOV.L       R2,@(40,R4); (part of)zbuf[]
    00001FDE 6572                   MOV.L       @R7,R5     ; uuid
    00001FE0 7501                   ADD         #1,R5
    00001FE2 2752                   MOV.L       R5,@R7     ; uuid
    00001FE4              L179:
            graphic.c        369    
            graphic.c        370          //bottom
            graphic.c        371          g_addtriangle(ivec3f(int2f(1+x), int2f(0+y), int2f(1+z)), ivec3f(int2f(0+x), int2f(0+y), int2f(1+z)), ivec3f(int2f(1+x), int2f(0+y), int2f(0+z)), tx);
    00001FE4 64F3                   MOV         R15,R4
    00001FE6 2F46                   MOV.L       R4,@-R15
    00001FE8 E0E4                   MOV         #-28,R0    ; H'FFFFFFE4
    00001FEA 600C                   EXTU.B      R0,R0
    00001FEC 05FE                   MOV.L       @(R0,R15),R5
    00001FEE 6493                   MOV         R9,R4
    00001FF0 4D0B                   JSR         @R13
    00001FF2 66C3                   MOV         R12,R6
    00001FF4 7F04                   ADD         #4,R15
    00001FF6 65F3                   MOV         R15,R5
    00001FF8 7510                   ADD         #16,R5
    00001FFA 2F56                   MOV.L       R5,@-R15
    00001FFC E0E0                   MOV         #-32,R0    ; H'FFFFFFE0
    00001FFE 600C                   EXTU.B      R0,R0
    00002000 04FE                   MOV.L       @(R0,R15),R4
    00002002 7004                   ADD         #4,R0
    00002004 05FE                   MOV.L       @(R0,R15),R5
    00002006 4D0B                   JSR         @R13
    00002008 66C3                   MOV         R12,R6
    0000200A 7F04                   ADD         #4,R15
    0000200C 66F3                   MOV         R15,R6
    0000200E 7620                   ADD         #32,R6
    00002010 2F66                   MOV.L       R6,@-R15
    00002012 E0E4                   MOV         #-28,R0    ; H'FFFFFFE4
    00002014 600C                   EXTU.B      R0,R0
    00002016 05FE                   MOV.L       @(R0,R15),R5
    00002018 6683                   MOV         R8,R6
    0000201A 4D0B                   JSR         @R13
    0000201C 6493                   MOV         R9,R4
    0000201E 7F04                   ADD         #4,R15
    00002020 67F2                   MOV.L       @R15,R7
    00002022 5AF2                   MOV.L       @(8,R15),R10
    00002024 1F7B                   MOV.L       R7,@(44,R15); (part of)a
    00002026 1FAD                   MOV.L       R10,@(52,R15); (part of)a
    00002028 62F3                   MOV         R15,R2
    0000202A 57F5                   MOV.L       @(20,R15),R7
    0000202C 64F3                   MOV         R15,R4
    0000202E 5AF9                   MOV.L       @(36,R15),R10
    00002030 7238                   ADD         #56,R2
    00002032 7444                   ADD         #68,R4
    00002034 1271                   MOV.L       R7,@(4,R2) ; (part of)b
    00002036 57F6                   MOV.L       @(24,R15),R7
    00002038 14A1                   MOV.L       R10,@(4,R4); (part of)c
    0000203A DA78                   MOV.L       L207+8,R10 ; _zbuf_idx
    0000203C 51F4                   MOV.L       @(16,R15),R1
    0000203E 1272                   MOV.L       R7,@(8,R2) ; (part of)b
    00002040 67A1                   MOV.W       @R10,R7    ; zbuf_idx
    00002042 2212                   MOV.L       R1,@R2     ; (part of)b
    00002044 51F8                   MOV.L       @(32,R15),R1
    00002046 627D                   EXTU.W      R7,R2
    00002048 32B3                   CMP/GE      R11,R2
    0000204A 55F1                   MOV.L       @(4,R15),R5
    0000204C 2412                   MOV.L       R1,@R4     ; (part of)c
    0000204E 51FA                   MOV.L       @(40,R15),R1
    00002050 1F5C                   MOV.L       R5,@(48,R15); (part of)a
    00002052 8D4E                   BT/S        L181
    00002054 1412                   MOV.L       R1,@(8,R4) ; (part of)c
    00002056 7FF4                   ADD         #-12,R15
    00002058 62F3                   MOV         R15,R2
    0000205A 7250                   ADD         #80,R2
    0000205C 6722                   MOV.L       @R2,R7     ; (part of)c
    0000205E 5121                   MOV.L       @(4,R2),R1 ; (part of)c
    00002060 5522                   MOV.L       @(8,R2),R5 ; (part of)c
    00002062 2F72                   MOV.L       R7,@R15
    00002064 1F11                   MOV.L       R1,@(4,R15)
    00002066 1F52                   MOV.L       R5,@(8,R15)
    00002068 7FF4                   ADD         #-12,R15
    0000206A 65F3                   MOV         R15,R5
    0000206C 7550                   ADD         #80,R5
    0000206E 6152                   MOV.L       @R5,R1     ; (part of)b
    00002070 5751                   MOV.L       @(4,R5),R7 ; (part of)b
    00002072 2F12                   MOV.L       R1,@R15
    00002074 5152                   MOV.L       @(8,R5),R1 ; (part of)b
    00002076 1F71                   MOV.L       R7,@(4,R15)
    00002078 1F12                   MOV.L       R1,@(8,R15)
    0000207A 7FF4                   ADD         #-12,R15
    0000207C 64F3                   MOV         R15,R4
    0000207E 7450                   ADD         #80,R4
    00002080 6542                   MOV.L       @R4,R5     ; (part of)a
    00002082 5241                   MOV.L       @(4,R4),R2 ; (part of)a
    00002084 2F52                   MOV.L       R5,@R15
    00002086 E5A4                   MOV         #-92,R5    ; H'FFFFFFA4
    00002088 5642                   MOV.L       @(8,R4),R6 ; (part of)a
    0000208A 655C                   EXTU.B      R5,R5
    0000208C 67F3                   MOV         R15,R7
    0000208E 375C                   ADD         R5,R7
    00002090 1F21                   MOV.L       R2,@(4,R15)
    00002092 1F62                   MOV.L       R6,@(8,R15)
    00002094 64EC                   EXTU.B      R14,R4
    00002096 2F76                   MOV.L       R7,@-R15
    00002098 D65F                   MOV.L       L207+4,R6  ; _uuid
    0000209A D161                   MOV.L       L207+12,R1 ; _itrianglef
    0000209C 410B                   JSR         @R1
    0000209E 6562                   MOV.L       @R6,R5     ; uuid
    000020A0 7F28                   ADD         #40,R15
    000020A2 64A1                   MOV.W       @R10,R4    ; zbuf_idx
    000020A4 D15F                   MOV.L       L207+16,R1 ; _zbuf
    000020A6 6743                   MOV         R4,R7
    000020A8 7701                   ADD         #1,R7
    000020AA 2A71                   MOV.W       R7,@R10    ; zbuf_idx
    000020AC EA2C                   MOV         #44,R10    ; H'0000002C
    000020AE 644D                   EXTU.W      R4,R4
    000020B0 0A47                   MUL.L       R4,R10
    000020B2 7A54                   ADD         #84,R10
    000020B4 65F3                   MOV         R15,R5
    000020B6 35AC                   ADD         R10,R5
    000020B8 6412                   MOV.L       @R1,R4     ; zbuf
    000020BA 071A                   STS         MACL,R7
    000020BC 6A52                   MOV.L       @R5,R10
    000020BE 5251                   MOV.L       @(4,R5),R2
    000020C0 5152                   MOV.L       @(8,R5),R1
    000020C2 5653                   MOV.L       @(12,R5),R6
    000020C4 347C                   ADD         R7,R4
    000020C6 24A2                   MOV.L       R10,@R4    ; (part of)zbuf[]
    000020C8 1421                   MOV.L       R2,@(4,R4) ; (part of)zbuf[]
    000020CA 1412                   MOV.L       R1,@(8,R4) ; (part of)zbuf[]
    000020CC 1463                   MOV.L       R6,@(12,R4); (part of)zbuf[]
    000020CE 5A54                   MOV.L       @(16,R5),R10
    000020D0 5655                   MOV.L       @(20,R5),R6
    000020D2 14A4                   MOV.L       R10,@(16,R4); (part of)zbuf[]
    000020D4 1465                   MOV.L       R6,@(20,R4); (part of)zbuf[]
    000020D6 5A56                   MOV.L       @(24,R5),R10
    000020D8 5657                   MOV.L       @(28,R5),R6
    000020DA 5258                   MOV.L       @(32,R5),R2
    000020DC 14A6                   MOV.L       R10,@(24,R4); (part of)zbuf[]
    000020DE 1467                   MOV.L       R6,@(28,R4); (part of)zbuf[]
    000020E0 5659                   MOV.L       @(36,R5),R6
    000020E2 1428                   MOV.L       R2,@(32,R4); (part of)zbuf[]
    000020E4 525A                   MOV.L       @(40,R5),R2
    000020E6 DA4C                   MOV.L       L207+4,R10 ; _uuid
    000020E8 1469                   MOV.L       R6,@(36,R4); (part of)zbuf[]
    000020EA 142A                   MOV.L       R2,@(40,R4); (part of)zbuf[]
    000020EC 62A2                   MOV.L       @R10,R2    ; uuid
    000020EE 7201                   ADD         #1,R2
    000020F0 2A22                   MOV.L       R2,@R10    ; uuid
    000020F2              L181:
            graphic.c        372          g_addtriangle(ivec3f(int2f(0+x), int2f(0+y), int2f(0+z)), ivec3f(int2f(1+x), int2f(0+y), int2f(0+z)), ivec3f(int2f(0+x), int2f(0+y), int2f(1+z)), tx+0);
    000020F2 61F3                   MOV         R15,R1
    000020F4 2F16                   MOV.L       R1,@-R15
    000020F6 E0E0                   MOV         #-32,R0    ; H'FFFFFFE0
    000020F8 600C                   EXTU.B      R0,R0
    000020FA 04FE                   MOV.L       @(R0,R15),R4
    000020FC 7004                   ADD         #4,R0
    000020FE 05FE                   MOV.L       @(R0,R15),R5
    00002100 4D0B                   JSR         @R13
    00002102 6683                   MOV         R8,R6
    00002104 7F04                   ADD         #4,R15
    00002106 64F3                   MOV         R15,R4
    00002108 7410                   ADD         #16,R4
    0000210A 2F46                   MOV.L       R4,@-R15
    0000210C E0E4                   MOV         #-28,R0    ; H'FFFFFFE4
    0000210E 600C                   EXTU.B      R0,R0
    00002110 05FE                   MOV.L       @(R0,R15),R5
    00002112 6683                   MOV         R8,R6
    00002114 4D0B                   JSR         @R13
    00002116 6493                   MOV         R9,R4
    00002118 7F04                   ADD         #4,R15
    0000211A 65F3                   MOV         R15,R5
    0000211C 7520                   ADD         #32,R5
    0000211E 2F56                   MOV.L       R5,@-R15
    00002120 E0E0                   MOV         #-32,R0    ; H'FFFFFFE0
    00002122 600C                   EXTU.B      R0,R0
    00002124 04FE                   MOV.L       @(R0,R15),R4
    00002126 7004                   ADD         #4,R0
    00002128 05FE                   MOV.L       @(R0,R15),R5
    0000212A 4D0B                   JSR         @R13
    0000212C 66C3                   MOV         R12,R6
    0000212E 7F04                   ADD         #4,R15
    00002130 61F3                   MOV         R15,R1
    00002132 5AF6                   MOV.L       @(24,R15),R10
    00002134 7138                   ADD         #56,R1
    00002136 57F1                   MOV.L       @(4,R15),R7
    00002138 58F2                   MOV.L       @(8,R15),R8
    0000213A 11A2                   MOV.L       R10,@(8,R1); (part of)b
    0000213C DA37                   MOV.L       L207+8,R10 ; _zbuf_idx
    0000213E 1F7C                   MOV.L       R7,@(48,R15); (part of)a
    00002140 1F8D                   MOV.L       R8,@(52,R15); (part of)a
    00002142 62F3                   MOV         R15,R2
    00002144 5CF8                   MOV.L       @(32,R15),R12
    00002146 57F9                   MOV.L       @(36,R15),R7
    00002148 5DFA                   MOV.L       @(40,R15),R13
    0000214A 68A1                   MOV.W       @R10,R8    ; zbuf_idx
    0000214C 7244                   ADD         #68,R2
    0000214E 22C2                   MOV.L       R12,@R2    ; (part of)c
    00002150 1271                   MOV.L       R7,@(4,R2) ; (part of)c
    00002152 12D2                   MOV.L       R13,@(8,R2); (part of)c
    00002154 628D                   EXTU.W      R8,R2
    00002156 32B3                   CMP/GE      R11,R2
    00002158 64F2                   MOV.L       @R15,R4
    0000215A 55F4                   MOV.L       @(16,R15),R5
    0000215C 59F5                   MOV.L       @(20,R15),R9
    0000215E 1F4B                   MOV.L       R4,@(44,R15); (part of)a
    00002160 2152                   MOV.L       R5,@R1     ; (part of)b
    00002162 8D4A                   BT/S        L183
    00002164 1191                   MOV.L       R9,@(4,R1) ; (part of)b
    00002166 7FF4                   ADD         #-12,R15
    00002168 68F3                   MOV         R15,R8
    0000216A 7850                   ADD         #80,R8
    0000216C 6582                   MOV.L       @R8,R5     ; (part of)c
    0000216E 5981                   MOV.L       @(4,R8),R9 ; (part of)c
    00002170 5B82                   MOV.L       @(8,R8),R11; (part of)c
    00002172 2F52                   MOV.L       R5,@R15
    00002174 1F91                   MOV.L       R9,@(4,R15)
    00002176 1FB2                   MOV.L       R11,@(8,R15)
    00002178 7FF4                   ADD         #-12,R15
    0000217A 69F3                   MOV         R15,R9
    0000217C 7950                   ADD         #80,R9
    0000217E 6792                   MOV.L       @R9,R7     ; (part of)b
    00002180 5C91                   MOV.L       @(4,R9),R12; (part of)b
    00002182 5D92                   MOV.L       @(8,R9),R13; (part of)b
    00002184 2F72                   MOV.L       R7,@R15
    00002186 1FC1                   MOV.L       R12,@(4,R15)
    00002188 1FD2                   MOV.L       R13,@(8,R15)
    0000218A 7FF4                   ADD         #-12,R15
    0000218C 6BF3                   MOV         R15,R11
    0000218E 7B50                   ADD         #80,R11
    00002190 61B2                   MOV.L       @R11,R1    ; (part of)a
    00002192 58B1                   MOV.L       @(4,R11),R8; (part of)a
    00002194 55B2                   MOV.L       @(8,R11),R5; (part of)a
    00002196 66F3                   MOV         R15,R6
    00002198 7674                   ADD         #116,R6
    0000219A 2F12                   MOV.L       R1,@R15
    0000219C 1F81                   MOV.L       R8,@(4,R15)
    0000219E 1F52                   MOV.L       R5,@(8,R15)
    000021A0 64EC                   EXTU.B      R14,R4
    000021A2 2F66                   MOV.L       R6,@-R15
    000021A4 DE1C                   MOV.L       L207+4,R14 ; _uuid
    000021A6 D71E                   MOV.L       L207+12,R7 ; _itrianglef
    000021A8 470B                   JSR         @R7
    000021AA 65E2                   MOV.L       @R14,R5    ; uuid
    000021AC 7F28                   ADD         #40,R15
    000021AE 68A1                   MOV.W       @R10,R8    ; zbuf_idx
    000021B0 D11C                   MOV.L       L207+16,R1 ; _zbuf
    000021B2 6983                   MOV         R8,R9
    000021B4 7901                   ADD         #1,R9
    000021B6 2A91                   MOV.W       R9,@R10    ; zbuf_idx
    000021B8 EA2C                   MOV         #44,R10    ; H'0000002C
    000021BA 688D                   EXTU.W      R8,R8
    000021BC 0A87                   MUL.L       R8,R10
    000021BE 62F3                   MOV         R15,R2
    000021C0 7250                   ADD         #80,R2
    000021C2 6412                   MOV.L       @R1,R4     ; zbuf
    000021C4 091A                   STS         MACL,R9
    000021C6 6A22                   MOV.L       @R2,R10
    000021C8 5B21                   MOV.L       @(4,R2),R11
    000021CA 349C                   ADD         R9,R4
    000021CC 24A2                   MOV.L       R10,@R4    ; (part of)zbuf[]
    000021CE 14B1                   MOV.L       R11,@(4,R4); (part of)zbuf[]
    000021D0 5B22                   MOV.L       @(8,R2),R11
    000021D2 5C23                   MOV.L       @(12,R2),R12
    000021D4 14B2                   MOV.L       R11,@(8,R4); (part of)zbuf[]
    000021D6 14C3                   MOV.L       R12,@(12,R4); (part of)zbuf[]
    000021D8 5C24                   MOV.L       @(16,R2),R12
    000021DA 5D25                   MOV.L       @(20,R2),R13
    000021DC 14C4                   MOV.L       R12,@(16,R4); (part of)zbuf[]
    000021DE 14D5                   MOV.L       R13,@(20,R4); (part of)zbuf[]
    000021E0 5D26                   MOV.L       @(24,R2),R13
    000021E2 5627                   MOV.L       @(28,R2),R6
    000021E4 14D6                   MOV.L       R13,@(24,R4); (part of)zbuf[]
    000021E6 1467                   MOV.L       R6,@(28,R4); (part of)zbuf[]
    000021E8 5128                   MOV.L       @(32,R2),R1
    000021EA 5629                   MOV.L       @(36,R2),R6
    000021EC 572A                   MOV.L       @(40,R2),R7
    000021EE 1418                   MOV.L       R1,@(32,R4); (part of)zbuf[]
    000021F0 1469                   MOV.L       R6,@(36,R4); (part of)zbuf[]
    000021F2 147A                   MOV.L       R7,@(40,R4); (part of)zbuf[]
    000021F4 62E2                   MOV.L       @R14,R2    ; uuid
    000021F6 7201                   ADD         #1,R2
    000021F8 2E22                   MOV.L       R2,@R14    ; uuid
    000021FA              L183:
            graphic.c        373    
            graphic.c        374          return g_draw();
    000021FA 930B                   MOV.W       L207,R3    ; H'00E8
    000021FC 3F3C                   ADD         R3,R15
    000021FE 4F16                   LDS.L       @R15+,MACL
    00002200 4F26                   LDS.L       @R15+,PR
    00002202 6EF6                   MOV.L       @R15+,R14
    00002204 6DF6                   MOV.L       @R15+,R13
    00002206 6CF6                   MOV.L       @R15+,R12
    00002208 6BF6                   MOV.L       @R15+,R11
    0000220A 6AF6                   MOV.L       @R15+,R10
    0000220C 69F6                   MOV.L       @R15+,R9
    0000220E D306                   MOV.L       L207+20,R3 ; _g_draw
    00002210 432B                   JMP         @R3
    00002212 68F6                   MOV.L       @R15+,R8
    00002214              L207:
    00002214 00E8                   .DATA.W     H'00E8
    00002216 00000002               .RES.W      1
    00002218 <00000000>             .DATA.L     _uuid
    0000221C <00000000>             .DATA.L     _zbuf_idx
    00002220 <00000000>             .DATA.L     _itrianglef
    00002224 <00000000>             .DATA.L     _zbuf
    00002228 <00000000>             .DATA.L     _g_draw
            graphic.c        375    }
            graphic.c        376    
            graphic.c        377    
            graphic.c        378    
            graphic.c        379    
D   00000000              _textures:                       ; static: textures
    00000000 0000000000             .DATA.B     H'00,H'00,H'00,H'00,H'00,H'00,H'00,H'00,H'FF,H'01,H'01,H'01,H'01,H'01,H'01,H'FF,
             000000FF01 +                       H'FF,H'FF,H'FF,H'FF,H'FF,H'FF,H'FF,H'FF,H'AA,H'55,H'AA,H'55,H'AA,H'55,H'AA,H'55,
             0101010101 +                       H'33,H'33,H'CC,H'CC,H'33,H'33,H'CC,H'CC,H'AA,H'AA,H'AA,H'AA,H'AA,H'AA,H'AA,H'AA,
             FFFFFFFFFF +                       H'55,H'55,H'55,H'55,H'55,H'55,H'55,H'55
             FFFFFFFFAA   
             55AA55AA55   
             AA553333CC   
             CC3333CCCC   
             AAAAAAAAAA   
             AAAAAA5555   
             5555555555   
             55           
    00000038              _zbuf_idx:                       ; static: zbuf_idx
    00000038 0000                   .DATA.W     H'0000
    0000003A              _zindex_max:                     ; static: zindex_max
    0000003A 0000                   .DATA.W     H'0000
    0000003C              _uuid:                           ; static: uuid
    0000003C 00000001               .DATA.L     H'00000001
    00000040              _lock:                           ; static: lock
    00000040 00000000               .DATA.L     H'00000000
B   00000000              _p:                              ; static: p
    00000000 00000004               .RES.L      1
    00000004              _y:                              ; static: y
    00000004 00000004               .RES.L      1
    00000008              _o:                              ; static: o
    00000008 00000004               .RES.L      3
    00000014              _zbuf:                           ; static: zbuf
    00000014 00000004               .RES.L      1
SH SERIES C/C++ Compiler (V.9.04.02.001)                                                         26-Sep-2023 20:01:46  PAGE    1


******** STATISTICS INFORMATION ********


********** ERROR INFORMATION ***********

NUMBER OF ERRORS:           0
NUMBER OF WARNINGS:         0




******* SOURCE LINE INFORMATION ********

COMPILED SOURCE LINE:      379



******* SECTION SIZE INFORMATION *******

PROGRAM  SECTION (P):                                 0000222C Byte(s)
CONSTANT SECTION (C):                                 00000000 Byte(s)
DATA     SECTION (D):                                 00000044 Byte(s)
BSS      SECTION (B):                                 00000018 Byte(s)

TOTAL PROGRAM  SECTION: 0000222C Byte(s)
TOTAL CONSTANT SECTION: 00000000 Byte(s)
TOTAL DATA     SECTION: 00000044 Byte(s)
TOTAL BSS      SECTION: 00000018 Byte(s)

    TOTAL PROGRAM SIZE: 00002288 Byte(s)



********** LABEL INFORMATION ***********

NUMBER OF EXTERNAL REFERENCE SYMBOLS:           13
NUMBER OF EXTERNAL DEFINITION SYMBOLS:          17
NUMBER OF INTERNAL/EXTERNAL SYMBOLS:           167



*** COMMAND PARAMETER ***

-subcommand=C:\users\csani\Temp\hmkd490.tmp
-cpu=sh3
-include="C:\CasioSDK\OS\FX\include","C:\CasioSDK\Projects\Minecalc3"
-objectfile="C:\CasioSDK\Projects\Minecalc3\Debug\graphic.obj"
-show=source
-listfile="C:\CasioSDK\Projects\Minecalc3\Debug\graphic.lst"
-speed
-inline
-chgincpath
-errorpath
"C:\CasioSDK\Projects\Minecalc3\graphic.c"
-lang=c
-nologo
-debug
