SH SERIES C/C++ Compiler (V.9.04.02.001)                                                         21-Sep-2024 11:42:24  PAGE    1

************ OBJECT LISTING ************

FILE NAME: C:\CasioSDK\Projects\VIMS3D\raster.c

SCT OFFSET   CODE       C LABEL     INSTRUCTION OPERAND    COMMENT

             raster.c          1    #include "raster.h"
             raster.c          2    
             raster.c          3    /*
             raster.c          4     RASTER.C
             raster.c          5      functions for adding, removing and rendering triangles and additional drawing functions
             raster.c          6      provides the core of the rendering process
             raster.c          7    
             raster.c          8      using the higher level mesh system is preferred to raw triangles
             raster.c          9    */
             raster.c         10    
             raster.c         11    #define TBUF_SIZ MAX_TRIANGLES
             raster.c         12    
             raster.c         13    // global coordination variables
             raster.c         14    fixed gp, gy; // pitch, yaw
             raster.c         15    vec3f go; // origin point (camera)
             raster.c         16    
             raster.c         17    // triangle buffer, triangle indexing
             raster.c         18    trianglef *tbuf;
             raster.c         19    unsigned short tbuf_idx = 0;
             raster.c         20    signed int g_uuid = 1;                                // nothing gets g_uuid 0
             raster.c         21    
             raster.c         22    // depth buffer: a 128*64 array, every pixel has a 11+5 bit fixed-point depth value
             raster.c         23    int16_t *depthbuf[64];
             raster.c         24    
             raster.c         25    unsigned char *vram;
             raster.c         26    
             raster.c         27    // initialize all buffers (static alloc for buffers isn't possible)
             raster.c         28    int g_init(void) {
P   00000000              _g_init:                         ; function: g_init
                                                           ; frame size=12
    00000000 2FD6                   MOV.L       R13,@-R15
    00000002 2FE6                   MOV.L       R14,@-R15
    00000004 4F22                   STS.L       PR,@-R15
             raster.c         29          int i, j;
             raster.c         30    
             raster.c         31          tbuf = (trianglef *)malloc(TBUF_SIZ*sizeof(trianglef));
    00000006 D684                   MOV.L       L153+4,R6  ; _malloc
    00000008 94B8                   MOV.W       L152,R4    ; H'12C0
    0000000A 460B                   JSR         @R6
    0000000C 0009                   NOP
    0000000E D583                   MOV.L       L153+8,R5  ; _tbuf
             raster.c         32    
             raster.c         33          for (i = 0; i < 64; i++) {
    00000010 ED40                   MOV         #64,R13    ; H'00000040
    00000012 2502                   MOV.L       R0,@R5     ; tbuf
    00000014 DE82                   MOV.L       L153+12,R14; _depthbuf
    00000016              L11:
             raster.c         34                  depthbuf[i] = (int16_t *) malloc(128*sizeof(int16_t)); 
    00000016 D680                   MOV.L       L153+4,R6  ; _malloc
    00000018 E401                   MOV         #1,R4      ; H'00000001
    0000001A 460B                   JSR         @R6
    0000001C 4418                   SHLL8       R4
    0000001E 4D10                   DT          R13
    00000020 2E02                   MOV.L       R0,@R14    ; depthbuf[]
    00000022 8FF8                   BF/S        L11
    00000024 7E04                   ADD         #4,R14
             raster.c         35          }
             raster.c         36    
             raster.c         37          if (tbuf == NULL) return G_EALLOC;
    00000026 D57D                   MOV.L       L153+8,R5  ; _tbuf
    00000028 6452                   MOV.L       @R5,R4     ; tbuf
    0000002A 2448                   TST         R4,R4
    0000002C 8B01                   BF          L14
    0000002E A00F                   BRA         L15
    00000030 E0FF                   MOV         #-1,R0     ; H'FFFFFFFF
    00000032              L14:
    00000032 D17C                   MOV.L       L153+16,R1 ; _memset
    00000034 96A2                   MOV.W       L152,R6    ; H'12C0
    00000036 DD7C                   MOV.L       L153+20,R13; _tbuf_idx
    00000038 DE7C                   MOV.L       L153+24,R14; _g_uuid
    0000003A 410B                   JSR         @R1
    0000003C E500                   MOV         #0,R5      ; H'00000000
    0000003E E400                   MOV         #0,R4      ; H'00000000
    00000040 E501                   MOV         #1,R5      ; H'00000001
             raster.c         38    
             raster.c         39          g_clrbuf();
             raster.c         40    
             raster.c         41          vram = GetVRAMAddress();
    00000042 D77B                   MOV.L       L153+28,R7 ; _GetVRAMAddress
    00000044 2D41                   MOV.W       R4,@R13    ; tbuf_idx
    00000046 470B                   JSR         @R7
    00000048 2E52                   MOV.L       R5,@R14    ; g_uuid
    0000004A D17A                   MOV.L       L153+32,R1 ; _vram
    0000004C 2102                   MOV.L       R0,@R1     ; vram
             raster.c         42    
             raster.c         43          return G_SUCCESS;
    0000004E E000                   MOV         #0,R0      ; H'00000000
    00000050              L15:
    00000050 4F26                   LDS.L       @R15+,PR
    00000052 6EF6                   MOV.L       @R15+,R14
             raster.c         44    }
    00000054 000B                   RTS
    00000056 6DF6                   MOV.L       @R15+,R13
             raster.c         45    
             raster.c         46    // clear buffers, initialize 
             raster.c         47    void g_clrbuf(void) {
    00000058              _g_clrbuf:                       ; function: g_clrbuf
                                                           ; frame size=4
    00000058 4F22                   STS.L       PR,@-R15
    0000005A D170                   MOV.L       L153+8,R1  ; _tbuf
             raster.c         48          memset((char *)tbuf, 0, TBUF_SIZ*sizeof(trianglef));
    0000005C D771                   MOV.L       L153+16,R7 ; _memset
    0000005E 6412                   MOV.L       @R1,R4     ; tbuf
    00000060 968C                   MOV.W       L152,R6    ; H'12C0
    00000062 470B                   JSR         @R7
    00000064 E500                   MOV         #0,R5      ; H'00000000
    00000066 D270                   MOV.L       L153+20,R2 ; _tbuf_idx
             raster.c         49          tbuf_idx = 0;
    00000068 E100                   MOV         #0,R1      ; H'00000000
    0000006A D470                   MOV.L       L153+24,R4 ; _g_uuid
    0000006C 2211                   MOV.W       R1,@R2     ; tbuf_idx
             raster.c         50          g_uuid = 1;
    0000006E E201                   MOV         #1,R2      ; H'00000001
    00000070 4F26                   LDS.L       @R15+,PR
             raster.c         51    }
    00000072 000B                   RTS
    00000074 2422                   MOV.L       R2,@R4     ; g_uuid
             raster.c         52    
             raster.c         53    signed int g_addtriangle(trianglef t) {
    00000076              _g_addtriangle:                  ; function: g_addtriangle
                                                           ; frame size=96
    00000076 2FE6                   MOV.L       R14,@-R15
    00000078 4F22                   STS.L       PR,@-R15
    0000007A 7FD0                   ADD         #-48,R15
             raster.c         54          if (tbuf_idx < TBUF_SIZ-1) {
    0000007C DE6A                   MOV.L       L153+20,R14; _tbuf_idx
    0000007E E663                   MOV         #99,R6     ; H'00000063
    00000080 62E1                   MOV.W       @R14,R2    ; tbuf_idx
    00000082 3262                   CMP/HS      R6,R2
    00000084 8D36                   BT/S        L19
    00000086 E0FD                   MOV         #-3,R0     ; H'FFFFFFFD
             raster.c         55                  tbuf[tbuf_idx++] = itrianglef(t.a, t.b, t.c, t.tx, g_uuid, t.flip_texture);
    00000088 7FF4                   ADD         #-12,R15
    0000008A 62F3                   MOV         R15,R2
    0000008C D76A                   MOV.L       L153+36,R7 ; __quick_odd_mvn
    0000008E E50C                   MOV         #12,R5     ; H'0000000C
    00000090 61F3                   MOV         R15,R1
    00000092 725C                   ADD         #92,R2
    00000094 470B                   JSR         @R7
    00000096 6053                   MOV         R5,R0
    00000098 7FF4                   ADD         #-12,R15
    0000009A 62F3                   MOV         R15,R2
    0000009C 61F3                   MOV         R15,R1
    0000009E 725C                   ADD         #92,R2
    000000A0 470B                   JSR         @R7
    000000A2 6053                   MOV         R5,R0
    000000A4 7FF4                   ADD         #-12,R15
    000000A6 62F3                   MOV         R15,R2
    000000A8 61F3                   MOV         R15,R1
    000000AA 725C                   ADD         #92,R2
    000000AC 470B                   JSR         @R7
    000000AE 6053                   MOV         R5,R0
    000000B0 61F3                   MOV         R15,R1
    000000B2 7124                   ADD         #36,R1
    000000B4 2F16                   MOV.L       R1,@-R15
    000000B6 D75D                   MOV.L       L153+24,R7 ; _g_uuid
    000000B8 D160                   MOV.L       L153+40,R1 ; _itrianglef
    000000BA 9060                   MOV.W       L152+2,R0  ; H'008C
    000000BC 06FC                   MOV.B       @(R0,R15),R6
    000000BE 6572                   MOV.L       @R7,R5     ; g_uuid
    000000C0 905E                   MOV.W       L152+4,R0  ; H'0084
    000000C2 410B                   JSR         @R1
    000000C4 04FE                   MOV.L       @(R0,R15),R4
    000000C6 7F28                   ADD         #40,R15
    000000C8 64E1                   MOV.W       @R14,R4    ; tbuf_idx
    000000CA E030                   MOV         #48,R0     ; H'00000030
    000000CC 6643                   MOV         R4,R6
    000000CE 7601                   ADD         #1,R6
    000000D0 2E61                   MOV.W       R6,@R14    ; tbuf_idx
    000000D2 6E4D                   EXTU.W      R4,R14
    000000D4 62E3                   MOV         R14,R2
    000000D6 4200                   SHLL        R2
    000000D8 32EC                   ADD         R14,R2
    000000DA DE50                   MOV.L       L153+8,R14 ; _tbuf
    000000DC 4208                   SHLL2       R2
    000000DE 61E2                   MOV.L       @R14,R1    ; tbuf
    000000E0 4208                   SHLL2       R2
    000000E2 D457                   MOV.L       L153+44,R4 ; __quick_evn_mvn
    000000E4 312C                   ADD         R2,R1
    000000E6 440B                   JSR         @R4
    000000E8 62F3                   MOV         R15,R2
             raster.c         56                  return g_uuid++;
    000000EA D650                   MOV.L       L153+24,R6 ; _g_uuid
    000000EC 6062                   MOV.L       @R6,R0     ; g_uuid
    000000EE 6503                   MOV         R0,R5
    000000F0 7501                   ADD         #1,R5
    000000F2 2652                   MOV.L       R5,@R6     ; g_uuid
    000000F4              L19:
    000000F4 7F30                   ADD         #48,R15
    000000F6 4F26                   LDS.L       @R15+,PR
             raster.c         57          }
             raster.c         58          return G_EBUFFULL;
             raster.c         59    }
    000000F8 000B                   RTS
    000000FA 6EF6                   MOV.L       @R15+,R14
             raster.c         60    
             raster.c         61    int g_removetriangle(uint32_t id) {
    000000FC              _g_removetriangle:               ; function: g_removetriangle
                                                           ; frame size=16
    000000FC 2FC6                   MOV.L       R12,@-R15
    000000FE 2FD6                   MOV.L       R13,@-R15
    00000100 2FE6                   MOV.L       R14,@-R15
    00000102 4F22                   STS.L       PR,@-R15
    00000104 D748                   MOV.L       L153+20,R7 ; _tbuf_idx
    00000106 DC45                   MOV.L       L153+8,R12 ; _tbuf
    00000108 6271                   MOV.W       @R7,R2     ; tbuf_idx
    0000010A 66C2                   MOV.L       @R12,R6    ; tbuf
    0000010C 652D                   EXTU.W      R2,R5
    0000010E 7628                   ADD         #40,R6
             raster.c         62          int i, j;
             raster.c         63          for(i = 0; i < tbuf_idx; i++) {
    00000110 EE00                   MOV         #0,R14     ; H'00000000
    00000112              L21:
    00000112 3E53                   CMP/GE      R5,R14
    00000114 891F                   BT          L23
             raster.c         64                  if (tbuf[i].id == id) {
    00000116 6262                   MOV.L       @R6,R2     ; tbuf[].id
    00000118 3240                   CMP/EQ      R4,R2
    0000011A 8902                   BT          L25
    0000011C 7E01                   ADD         #1,R14
    0000011E AFF8                   BRA         L21
    00000120 7630                   ADD         #48,R6
    00000122              L25:
             raster.c         65                          for (j = i; j < (tbuf_idx-1); j++) {
    00000122 6DE3                   MOV         R14,R13
    00000124 4D00                   SHLL        R13
    00000126 3DEC                   ADD         R14,R13
    00000128 4D08                   SHLL2       R13
    0000012A A009                   BRA         L26
    0000012C 4D08                   SHLL2       R13
    0000012E              L27:
             raster.c         66                                  tbuf[j] = tbuf[j+1];
    0000012E 61C2                   MOV.L       @R12,R1    ; tbuf
    00000130 D543                   MOV.L       L153+44,R5 ; __quick_evn_mvn
    00000132 31DC                   ADD         R13,R1
    00000134 6213                   MOV         R1,R2
    00000136 7230                   ADD         #48,R2
    00000138 450B                   JSR         @R5
    0000013A E030                   MOV         #48,R0     ; H'00000030
    0000013C 7D30                   ADD         #48,R13
    0000013E 7E01                   ADD         #1,R14
    00000140              L26:
    00000140 D739                   MOV.L       L153+20,R7 ; _tbuf_idx
    00000142 6671                   MOV.W       @R7,R6     ; tbuf_idx
    00000144 666D                   EXTU.W      R6,R6
    00000146 6263                   MOV         R6,R2
    00000148 72FF                   ADD         #-1,R2
    0000014A 3E23                   CMP/GE      R2,R14
    0000014C 8BEF                   BF          L27
             raster.c         67                          }
             raster.c         68                          tbuf_idx--;
    0000014E 76FF                   ADD         #-1,R6
    00000150 2761                   MOV.W       R6,@R7     ; tbuf_idx
             raster.c         69                          return G_SUCCESS;
    00000152 A001                   BRA         L29
    00000154 E000                   MOV         #0,R0      ; H'00000000
    00000156              L23:
             raster.c         70                  }
             raster.c         71          }
             raster.c         72          return G_ENEXIST;
    00000156 E0FC                   MOV         #-4,R0     ; H'FFFFFFFC
    00000158              L29:
    00000158 4F26                   LDS.L       @R15+,PR
    0000015A 6EF6                   MOV.L       @R15+,R14
    0000015C 6DF6                   MOV.L       @R15+,R13
             raster.c         73    }
    0000015E 000B                   RTS
    00000160 6CF6                   MOV.L       @R15+,R12
             raster.c         74    
             raster.c         75    void g_coord(vec3f _pos, fixed _pitch, fixed _yaw) {
    00000162              _g_coord:                        ; function: g_coord
                                                           ; frame size=4
    00000162 4F22                   STS.L       PR,@-R15
    00000164 D137                   MOV.L       L153+48,R1 ; _go
    00000166 62F3                   MOV         R15,R2
    00000168 D633                   MOV.L       L153+36,R6 ; __quick_odd_mvn
    0000016A 7204                   ADD         #4,R2
    0000016C 460B                   JSR         @R6
    0000016E E00C                   MOV         #12,R0     ; H'0000000C
             raster.c         76          go = _pos;
             raster.c         77          gp = _pitch;
    00000170 D135                   MOV.L       L153+52,R1 ; _gp
    00000172 2142                   MOV.L       R4,@R1     ; gp
             raster.c         78          gy = _yaw;
    00000174 D435                   MOV.L       L153+56,R4 ; _gy
    00000176 4F26                   LDS.L       @R15+,PR
             raster.c         79    }
    00000178 000B                   RTS
    0000017A 2452                   MOV.L       R5,@R4     ; gy
    0000017C              L152:
    0000017C 12C0                   .DATA.W     H'12C0
    0000017E 008C                   .DATA.W     H'008C
    00000180 0084                   .DATA.W     H'0084
             raster.c         80    
             raster.c         81    unsigned int g_draw_horizon(void) {
    00000182              _g_draw_horizon:                 ; function: g_draw_horizon
                                                           ; frame size=32
    00000182 4F22                   STS.L       PR,@-R15
    00000184 4F12                   STS.L       MACL,@-R15
    00000186 4F02                   STS.L       MACH,@-R15
             raster.c         82          int sspace_horiz_y;
             raster.c         83          sspace_horiz_y = f2int(mulff(sin_f(-gp), int2f(64))) + 32;
    00000188 7FF0                   ADD         #-16,R15
    0000018A D52F                   MOV.L       L153+52,R5 ; _gp
    0000018C 6152                   MOV.L       @R5,R1     ; gp
    0000018E D530                   MOV.L       L153+60,R5 ; _sin_f
    00000190 450B                   JSR         @R5
    00000192 641B                   NEG         R1,R4
    00000194 E201                   MOV         #1,R2      ; H'00000001
    00000196 4228                   SHLL16      R2
    00000198 320D                   DMULS.L     R0,R2
    0000019A 61F3                   MOV         R15,R1
    0000019C 7108                   ADD         #8,R1
    0000019E 060A                   STS         MACH,R6
    000001A0 071A                   STS         MACL,R7
    000001A2 2F62                   MOV.L       R6,@R15
    000001A4 1F71                   MOV.L       R7,@(4,R15)
    000001A6 2F16                   MOV.L       R1,@-R15
    000001A8 D42A                   MOV.L       L153+64,R4 ; __shard64
    000001AA 440B                   JSR         @R4
    000001AC E10A                   MOV         #10,R1     ; H'0000000A
    000001AE 7F0C                   ADD         #12,R15
    000001B0 62F6                   MOV.L       @R15+,R2
    000001B2 67F6                   MOV.L       @R15+,R7
    000001B4 E2F6                   MOV         #-10,R2    ; H'FFFFFFF6
    000001B6 472C                   SHAD        R2,R7
    000001B8 7720                   ADD         #32,R7
             raster.c         84          if (sspace_horiz_y < 0 || sspace_horiz_y >= 64) {
    000001BA 4711                   CMP/PZ      R7
    000001BC 8B0A                   BF          L33
    000001BE E240                   MOV         #64,R2     ; H'00000040
    000001C0 3723                   CMP/GE      R2,R7
    000001C2 8907                   BT          L33
             raster.c         85                  return 0;
             raster.c         86          }
             raster.c         87          Bdisp_SYS_FastDrawLineVRAM(0, sspace_horiz_y, 127, sspace_horiz_y);
    000001C4 D224                   MOV.L       L153+68,R2 ; _Bdisp_SYS_FastDrawLineVRAM
    000001C6 E67F                   MOV         #127,R6    ; H'0000007F
    000001C8 E400                   MOV         #0,R4      ; H'00000000
    000001CA 420B                   JSR         @R2
    000001CC 6573                   MOV         R7,R5
             raster.c         88          return 128;
    000001CE E080                   MOV         #-128,R0   ; H'FFFFFF80
    000001D0 A001                   BRA         L35
    000001D2 600C                   EXTU.B      R0,R0
    000001D4              L33:
    000001D4 E000                   MOV         #0,R0      ; H'00000000
    000001D6              L35:
    000001D6 4F06                   LDS.L       @R15+,MACH
    000001D8 4F16                   LDS.L       @R15+,MACL
    000001DA 4F26                   LDS.L       @R15+,PR
             raster.c         89    }
    000001DC 000B                   RTS
    000001DE 0009                   NOP
             raster.c         90    
             raster.c         91    unsigned int frame = 0;
             raster.c         92    extern volatile toggle_t interlace;
             raster.c         93    
             raster.c         94    // the One and Only Rendering(TM) function
             raster.c         95    
             raster.c         96    unsigned int g_rasterize_buf(void) {
    000001E0              _g_rasterize_buf:                ; function: g_rasterize_buf
                                                           ; frame size=452
    000001E0 2F86                   MOV.L       R8,@-R15
    000001E2 2F96                   MOV.L       R9,@-R15
    000001E4 2FA6                   MOV.L       R10,@-R15
    000001E6 2FB6                   MOV.L       R11,@-R15
    000001E8 2FC6                   MOV.L       R12,@-R15
    000001EA 2FD6                   MOV.L       R13,@-R15
    000001EC 2FE6                   MOV.L       R14,@-R15
    000001EE 4F22                   STS.L       PR,@-R15
    000001F0 4F12                   STS.L       MACL,@-R15
    000001F2 4F02                   STS.L       MACH,@-R15
    000001F4 930E                   MOV.W       L153,R3    ; H'FEA4
    000001F6 3F3C                   ADD         R3,R15
             raster.c         97          int curr_tidx, xiter, yiter;
             raster.c         98          int maxx, minx;
             raster.c         99          int bbox_left, bbox_right, bbox_top, bbox_bottom; // bounding box (on screen)
             raster.c        100          int q_cnt = 0;
             raster.c        101          int found;
             raster.c        102          fixed diff;
             raster.c        103    
             raster.c        104          trianglef t;
             raster.c        105          texture_ptr_t texture;
             raster.c        106          vec3f v0, v1, v2, a, b, c, nrm, ctot; // ctot is Camera TO Triangle
             raster.c        107          fixed denom, dot00, dot01, dot02, dot11, dot12, u, v, ui, vi; // for barycentric
             raster.c        108          fixed ozstep, uzstep, vzstep; // perspective correctness iterators
             raster.c        109          fixed ozp, uzp, vzp, ozq, uzq, vzq, oza, ozb, uzb, vzb, ozc, uzc, vzc, ozi, uzi, vzi, zci; // practical variable naming, UV data calculation
             raster.c        110          fixed v0x_sc, v1x_sc;
             raster.c        111    
             raster.c        112          uint8_t px, pxl;
             raster.c        113          uint16_t u_mult, v_mult;
             raster.c        114    
             raster.c        115          signed short depthval;
             raster.c        116    
             raster.c        117          frame++;
    000001F8 D618                   MOV.L       L153+72,R6 ; _frame
    000001FA E0E0                   MOV         #-32,R0    ; H'FFFFFFE0
    000001FC 6262                   MOV.L       @R6,R2     ; frame
    000001FE EE00                   MOV         #0,R14     ; H'00000000
    00000200 600C                   EXTU.B      R0,R0
    00000202 7201                   ADD         #1,R2
    00000204 0FE6                   MOV.L       R14,@(R0,R15); q_cnt
    00000206 2622                   MOV.L       R2,@R6     ; frame
             raster.c        118    
             raster.c        119    // some stuff can get stupidly large for the ~tiny~ 22-bit fixeds
             raster.c        120    // downscale them, who needs precision anyways :)
             raster.c        121    #define OF_SC 8       //OverFlow downSCale constant
             raster.c        122    
             raster.c        123    // we need precision for the texture calc :(
             raster.c        124    // 10 bits aren't really enough for precise calculations with inverses, so let's make them 14-bit!
             raster.c        125    #define ZREC_EXP 4 // exponent (spares some cycles with rshift instead of division)
             raster.c        126    #define ZREC_MULT (1<<ZREC_EXP)
             raster.c        127    
             raster.c        128          // iterate on every triangle of every distinct z index
             raster.c        129          for (curr_tidx = 0; curr_tidx < tbuf_idx; curr_tidx++) {
    00000208 7004                   ADD         #4,R0
    0000020A EA01                   MOV         #1,R10     ; H'00000001
    0000020C 0FE6                   MOV.L       R14,@(R0,R15); curr_tidx
    0000020E D314                   MOV.L       L153+76,R3 ; L37
    00000210 432B                   JMP         @R3
    00000212 4A28                   SHLL16      R10
    00000214              L153:
    00000214 FEA4                   .DATA.W     H'FEA4
    00000216 00000002               .RES.W      1
    00000218 <00000000>             .DATA.L     _malloc
    0000021C <00000000>             .DATA.L     _tbuf
    00000220 <00000000>             .DATA.L     _depthbuf
    00000224 <00000000>             .DATA.L     _memset
    00000228 <00000000>             .DATA.L     _tbuf_idx
    0000022C <00000000>             .DATA.L     _g_uuid
    00000230 <00000000>             .DATA.L     _GetVRAMAddress
    00000234 <00000000>             .DATA.L     _vram
    00000238 <00000000>             .DATA.L     __quick_odd_mvn
    0000023C <00000000>             .DATA.L     _itrianglef
    00000240 <00000000>             .DATA.L     __quick_evn_mvn
    00000244 <00000000>             .DATA.L     _go
    00000248 <00000000>             .DATA.L     _gp
    0000024C <00000000>             .DATA.L     _gy
    00000250 <00000000>             .DATA.L     _sin_f
    00000254 <00000000>             .DATA.L     __shard64
    00000258 <00000000>             .DATA.L     _Bdisp_SYS_FastDrawLineVRAM
    0000025C <00000000>             .DATA.L     _frame
    00000260 <00000000>             .DATA.L     L37
    00000264              L38:
             raster.c        130                  t = move(tbuf[curr_tidx], go, gp, gy); // transform to camera
    00000264 08FE                   MOV.L       @(R0,R15),R8; curr_tidx
    00000266 6E83                   MOV         R8,R14
    00000268 4E00                   SHLL        R14
    0000026A 3E8C                   ADD         R8,R14
    0000026C 4E08                   SHLL2       R14
    0000026E 4E08                   SHLL2       R14
    00000270 7FF4                   ADD         #-12,R15
    00000272 DCD1                   MOV.L       L155+2,R12 ; _go
    00000274 DBD1                   MOV.L       L155+6,R11 ; __quick_odd_mvn
    00000276 61F3                   MOV         R15,R1
    00000278 62C3                   MOV         R12,R2
    0000027A 4B0B                   JSR         @R11
    0000027C E00C                   MOV         #12,R0     ; H'0000000C
    0000027E 7FD0                   ADD         #-48,R15
    00000280 DDCF                   MOV.L       L155+10,R13; _tbuf
    00000282 61F3                   MOV         R15,R1
    00000284 62D2                   MOV.L       @R13,R2    ; tbuf
    00000286 DDCF                   MOV.L       L155+14,R13; __quick_evn_mvn
    00000288 32EC                   ADD         R14,R2
    0000028A 4D0B                   JSR         @R13
    0000028C E030                   MOV         #48,R0     ; H'00000030
    0000028E 61F3                   MOV         R15,R1
    00000290 713C                   ADD         #60,R1
    00000292 2F16                   MOV.L       R1,@-R15
    00000294 D4CC                   MOV.L       L155+18,R4 ; _gy
    00000296 D8CD                   MOV.L       L155+22,R8 ; _gp
    00000298 D6CD                   MOV.L       L155+26,R6 ; _move
    0000029A 6542                   MOV.L       @R4,R5     ; gy
    0000029C 460B                   JSR         @R6
    0000029E 6482                   MOV.L       @R8,R4     ; gp
    000002A0 7F10                   ADD         #16,R15
    000002A2 D9C7                   MOV.L       L155+10,R9 ; _tbuf
    000002A4 67F3                   MOV         R15,R7
    000002A6 6292                   MOV.L       @R9,R2     ; tbuf
             raster.c        131    
             raster.c        132                  nrm = normal(tbuf[curr_tidx]);
    000002A8 61F3                   MOV         R15,R1
    000002AA 32EC                   ADD         R14,R2
    000002AC E030                   MOV         #48,R0     ; H'00000030
    000002AE 4D0B                   JSR         @R13
    000002B0 7760                   ADD         #96,R7
    000002B2 D8C8                   MOV.L       L155+30,R8 ; _normal
    000002B4 480B                   JSR         @R8
    000002B6 2F76                   MOV.L       R7,@-R15
    000002B8 7F28                   ADD         #40,R15
             raster.c        133                  ctot = subvv(tbuf[curr_tidx].a, go);
    000002BA 61F3                   MOV         R15,R1
    000002BC 62C3                   MOV         R12,R2
    000002BE 4B0B                   JSR         @R11
    000002C0 E00C                   MOV         #12,R0     ; H'0000000C
    000002C2 7FF4                   ADD         #-12,R15
    000002C4 DCBE                   MOV.L       L155+10,R12; _tbuf
    000002C6 69F3                   MOV         R15,R9
    000002C8 62C2                   MOV.L       @R12,R2    ; tbuf
    000002CA 61F3                   MOV         R15,R1
    000002CC 32EC                   ADD         R14,R2
    000002CE E00C                   MOV         #12,R0     ; H'0000000C
    000002D0 4B0B                   JSR         @R11
    000002D2 7954                   ADD         #84,R9
    000002D4 DEC0                   MOV.L       L155+34,R14; _subvv
    000002D6 4E0B                   JSR         @R14
    000002D8 2F96                   MOV.L       R9,@-R15
    000002DA 7F1C                   ADD         #28,R15
             raster.c        134    
             raster.c        135                  // cull
             raster.c        136                  if(t.a.z < float2f(.5f) || t.b.z < float2f(.5f) || t.c.z < float2f(.5f) ||                                                      // near-plane
    000002DC E202                   MOV         #2,R2      ; H'00000002
    000002DE 5BF2                   MOV.L       @(8,R15),R11; t.a.z
    000002E0 4218                   SHLL8       R2
    000002E2 3B23                   CMP/GE      R2,R11
    000002E4 8902                   BT          L166
    000002E6 D3BD                   MOV.L       L155+38,R3 ; L40
    000002E8 432B                   JMP         @R3
    000002EA 0009                   NOP
    000002EC              L166:
    000002EC 59F5                   MOV.L       @(20,R15),R9; t.b.z
    000002EE 3923                   CMP/GE      R2,R9
    000002F0 8902                   BT          L167
    000002F2 D3BA                   MOV.L       L155+38,R3 ; L40
    000002F4 432B                   JMP         @R3
    000002F6 0009                   NOP
    000002F8              L167:
    000002F8 58F8                   MOV.L       @(32,R15),R8; t.c.z
    000002FA 3823                   CMP/GE      R2,R8
    000002FC 8902                   BT          L168
    000002FE D3B7                   MOV.L       L155+38,R3 ; L40
    00000300 432B                   JMP         @R3
    00000302 0009                   NOP
    00000304              L168:
    00000304 3BA7                   CMP/GT      R10,R11
    00000306 8B06                   BF          L44
    00000308 39A7                   CMP/GT      R10,R9
    0000030A 8B04                   BF          L44
    0000030C 38A7                   CMP/GT      R10,R8
    0000030E 8B02                   BF          L169
    00000310 D3B2                   MOV.L       L155+38,R3 ; L40
    00000312 432B                   JMP         @R3
    00000314 0009                   NOP
    00000316              L169:
    00000316              L44:
    00000316 7FF0                   ADD         #-16,R15
    00000318 E04C                   MOV         #76,R0     ; H'0000004C
    0000031A 0DFE                   MOV.L       @(R0,R15),R13; ctot.x
    0000031C E040                   MOV         #64,R0     ; H'00000040
    0000031E 0CFE                   MOV.L       @(R0,R15),R12; nrm.x
    00000320 3CDD                   DMULS.L     R13,R12
    00000322 0E1A                   STS         MACL,R14
    00000324 1FE1                   MOV.L       R14,@(4,R15)
    00000326 6EF3                   MOV         R15,R14
    00000328 0D0A                   STS         MACH,R13
    0000032A 7E08                   ADD         #8,R14
    0000032C 2FD2                   MOV.L       R13,@R15
    0000032E 2FE6                   MOV.L       R14,@-R15
    00000330 DEAB                   MOV.L       L155+42,R14; __shard64
    00000332 4E0B                   JSR         @R14
    00000334 E10A                   MOV         #10,R1     ; H'0000000A
    00000336 7F0C                   ADD         #12,R15
    00000338 61F6                   MOV.L       @R15+,R1
    0000033A 65F6                   MOV.L       @R15+,R5
    0000033C 7FF0                   ADD         #-16,R15
    0000033E E050                   MOV         #80,R0     ; H'00000050
    00000340 01FE                   MOV.L       @(R0,R15),R1; ctot.y
    00000342 E044                   MOV         #68,R0     ; H'00000044
    00000344 02FE                   MOV.L       @(R0,R15),R2; nrm.y
    00000346 321D                   DMULS.L     R1,R2
    00000348 071A                   STS         MACL,R7
    0000034A 1F71                   MOV.L       R7,@(4,R15)
    0000034C 67F3                   MOV         R15,R7
    0000034E 040A                   STS         MACH,R4
    00000350 7708                   ADD         #8,R7
    00000352 2F42                   MOV.L       R4,@R15
    00000354 2F76                   MOV.L       R7,@-R15
    00000356 4E0B                   JSR         @R14
    00000358 E10A                   MOV         #10,R1     ; H'0000000A
    0000035A 7F0C                   ADD         #12,R15
    0000035C 6CF6                   MOV.L       @R15+,R12
    0000035E 6CF6                   MOV.L       @R15+,R12
    00000360 35CC                   ADD         R12,R5
    00000362 7FF0                   ADD         #-16,R15
    00000364 E054                   MOV         #84,R0     ; H'00000054
    00000366 0DFE                   MOV.L       @(R0,R15),R13; ctot.z
    00000368 E048                   MOV         #72,R0     ; H'00000048
    0000036A 06FE                   MOV.L       @(R0,R15),R6; nrm.z
    0000036C 67F3                   MOV         R15,R7
    0000036E 36DD                   DMULS.L     R13,R6
    00000370 7708                   ADD         #8,R7
    00000372 040A                   STS         MACH,R4
    00000374 061A                   STS         MACL,R6
    00000376 2F42                   MOV.L       R4,@R15
    00000378 1F61                   MOV.L       R6,@(4,R15)
    0000037A 2F76                   MOV.L       R7,@-R15
    0000037C 4E0B                   JSR         @R14
    0000037E E10A                   MOV         #10,R1     ; H'0000000A
    00000380 7F0C                   ADD         #12,R15
    00000382 62F6                   MOV.L       @R15+,R2
    00000384 62F6                   MOV.L       @R15+,R2
    00000386 352C                   ADD         R2,R5
    00000388 4511                   CMP/PZ      R5
    0000038A 8B02                   BF          L170
    0000038C D393                   MOV.L       L155+38,R3 ; L40
    0000038E 432B                   JMP         @R3
    00000390 0009                   NOP
    00000392              L170:
             raster.c        137                     (t.a.z > int2f(64) && t.b.z > int2f(64) && t.c.z > int2f(64)) ||                                                                     // far-plane
             raster.c        138                     dotp(ctot, nrm) >= 0) {                                                                                                                                                      // backface
             raster.c        139                          continue;
             raster.c        140                  }
             raster.c        141    
             raster.c        142                  // never divide by 0, check even when near-plane culling is on, don't want stuff to go wrong
             raster.c        143                  if (t.a.z == 0) {       
    00000392 2BB8                   TST         R11,R11
    00000394 8B01                   BF          L48
             raster.c        144                          t.a.z = FIXED_EPSILON;
    00000396 EB01                   MOV         #1,R11     ; H'00000001
    00000398 1FB2                   MOV.L       R11,@(8,R15); t.a.z
    0000039A              L48:
             raster.c        145                  }
             raster.c        146                  if (t.b.z == 0) {       
    0000039A 2998                   TST         R9,R9
    0000039C 8B01                   BF          L50
             raster.c        147                          t.b.z = FIXED_EPSILON;
    0000039E E901                   MOV         #1,R9      ; H'00000001
    000003A0 1F95                   MOV.L       R9,@(20,R15); t.b.z
    000003A2              L50:
             raster.c        148                  }
             raster.c        149                  if (t.c.z == 0) {       
    000003A2 2888                   TST         R8,R8
    000003A4 8B01                   BF          L52
             raster.c        150                          t.c.z = FIXED_EPSILON;
    000003A6 E801                   MOV         #1,R8      ; H'00000001
    000003A8 1F88                   MOV.L       R8,@(32,R15); t.c.z
    000003AA              L52:
             raster.c        151                  }
             raster.c        152          
             raster.c        153                  // map to on-screen '2d' coordinates
             raster.c        154                  a = ivec3f(divff(mulff(t.a.x, int2f(64)), -t.a.z) + int2f(64),
             raster.c        155                       divff(mulff(t.a.y, int2f(64)), -t.a.z) + int2f(32),
             raster.c        156                       0);
    000003AA 6EBB                   NEG         R11,R14
    000003AC 62E3                   MOV         R14,R2
    000003AE 4200                   SHLL        R2
    000003B0 322A                   SUBC        R2,R2
    000003B2 64F3                   MOV         R15,R4
    000003B4 7448                   ADD         #72,R4
    000003B6 2422                   MOV.L       R2,@R4
    000003B8 14E1                   MOV.L       R14,@(4,R4)
    000003BA 7FF8                   ADD         #-8,R15
    000003BC E150                   MOV         #80,R1     ; H'00000050
    000003BE 6CF3                   MOV         R15,R12
    000003C0 3C1C                   ADD         R1,R12
    000003C2 52C1                   MOV.L       @(4,R12),R2
    000003C4 6DC2                   MOV.L       @R12,R13
    000003C6 2F26                   MOV.L       R2,@-R15
    000003C8 2FD6                   MOV.L       R13,@-R15
    000003CA 7FE0                   ADD         #-32,R15
    000003CC 5DFD                   MOV.L       @(52,R15),R13; t.a.y
    000003CE 61F3                   MOV         R15,R1
    000003D0 3ADD                   DMULS.L     R13,R10
    000003D2 7108                   ADD         #8,R1
    000003D4 0E0A                   STS         MACH,R14
    000003D6 041A                   STS         MACL,R4
    000003D8 2FE2                   MOV.L       R14,@R15
    000003DA 1F41                   MOV.L       R4,@(4,R15)
    000003DC 2F16                   MOV.L       R1,@-R15
    000003DE DD80                   MOV.L       L155+42,R13; __shard64
    000003E0 4D0B                   JSR         @R13
    000003E2 E10A                   MOV         #10,R1     ; H'0000000A
    000003E4 7F0C                   ADD         #12,R15
    000003E6 62F6                   MOV.L       @R15+,R2
    000003E8 65F6                   MOV.L       @R15+,R5
    000003EA 6253                   MOV         R5,R2
    000003EC 4200                   SHLL        R2
    000003EE 322A                   SUBC        R2,R2
    000003F0 64F3                   MOV         R15,R4
    000003F2 7408                   ADD         #8,R4
    000003F4 2F22                   MOV.L       R2,@R15
    000003F6 1F51                   MOV.L       R5,@(4,R15)
    000003F8 2F46                   MOV.L       R4,@-R15
    000003FA D57A                   MOV.L       L155+46,R5 ; __shlld64
    000003FC 450B                   JSR         @R5
    000003FE E10A                   MOV         #10,R1     ; H'0000000A
    00000400 7F0C                   ADD         #12,R15
    00000402 66F3                   MOV         R15,R6
    00000404 7610                   ADD         #16,R6
    00000406 DC78                   MOV.L       L155+50,R12; __div64s
    00000408 4C0B                   JSR         @R12
    0000040A 2F66                   MOV.L       R6,@-R15
    0000040C 7F14                   ADD         #20,R15
    0000040E 67F6                   MOV.L       @R15+,R7
    00000410 65F6                   MOV.L       @R15+,R5
    00000412 D776                   MOV.L       L155+54,R7 ; H'00008000
    00000414 357C                   ADD         R7,R5
    00000416 7FF8                   ADD         #-8,R15
    00000418 E750                   MOV         #80,R7     ; H'00000050
    0000041A 6EF3                   MOV         R15,R14
    0000041C 3E7C                   ADD         R7,R14
    0000041E 51E1                   MOV.L       @(4,R14),R1
    00000420 67E2                   MOV.L       @R14,R7
    00000422 2F16                   MOV.L       R1,@-R15
    00000424 2F76                   MOV.L       R7,@-R15
    00000426 7FE0                   ADD         #-32,R15
    00000428 51FC                   MOV.L       @(48,R15),R1; t.a.x
    0000042A 66F3                   MOV         R15,R6
    0000042C 3A1D                   DMULS.L     R1,R10
    0000042E 7608                   ADD         #8,R6
    00000430 040A                   STS         MACH,R4
    00000432 021A                   STS         MACL,R2
    00000434 2F42                   MOV.L       R4,@R15
    00000436 1F21                   MOV.L       R2,@(4,R15)
    00000438 2F66                   MOV.L       R6,@-R15
    0000043A 4D0B                   JSR         @R13
    0000043C E10A                   MOV         #10,R1     ; H'0000000A
    0000043E 7F0C                   ADD         #12,R15
    00000440 62F6                   MOV.L       @R15+,R2
    00000442 64F6                   MOV.L       @R15+,R4
    00000444 6243                   MOV         R4,R2
    00000446 4200                   SHLL        R2
    00000448 322A                   SUBC        R2,R2
    0000044A 67F3                   MOV         R15,R7
    0000044C 7708                   ADD         #8,R7
    0000044E 2F22                   MOV.L       R2,@R15
    00000450 1F41                   MOV.L       R4,@(4,R15)
    00000452 2F76                   MOV.L       R7,@-R15
    00000454 DE63                   MOV.L       L155+46,R14; __shlld64
    00000456 4E0B                   JSR         @R14
    00000458 E10A                   MOV         #10,R1     ; H'0000000A
    0000045A 7F0C                   ADD         #12,R15
    0000045C 61F3                   MOV         R15,R1
    0000045E 7110                   ADD         #16,R1
    00000460 4C0B                   JSR         @R12
    00000462 2F16                   MOV.L       R1,@-R15
    00000464 7F14                   ADD         #20,R15
    00000466 66F6                   MOV.L       @R15+,R6
    00000468 64F6                   MOV.L       @R15+,R4
    0000046A 66F3                   MOV         R15,R6
    0000046C 7650                   ADD         #80,R6
    0000046E 34AC                   ADD         R10,R4
    00000470 2F66                   MOV.L       R6,@-R15
    00000472 D75F                   MOV.L       L155+58,R7 ; _ivec3f
    00000474 470B                   JSR         @R7
    00000476 E600                   MOV         #0,R6      ; H'00000000
    00000478 7F04                   ADD         #4,R15
             raster.c        157                  b = ivec3f(divff(mulff(t.b.x, int2f(64)), -t.b.z) + int2f(64),
             raster.c        158                       divff(mulff(t.b.y, int2f(64)), -t.b.z) + int2f(32),
             raster.c        159                       0);
    0000047A 679B                   NEG         R9,R7
    0000047C 6273                   MOV         R7,R2
    0000047E 4200                   SHLL        R2
    00000480 322A                   SUBC        R2,R2
    00000482 65F3                   MOV         R15,R5
    00000484 755C                   ADD         #92,R5
    00000486 2522                   MOV.L       R2,@R5
    00000488 1571                   MOV.L       R7,@(4,R5)
    0000048A 7FF8                   ADD         #-8,R15
    0000048C E264                   MOV         #100,R2    ; H'00000064
    0000048E 6EF3                   MOV         R15,R14
    00000490 3E2C                   ADD         R2,R14
    00000492 54E1                   MOV.L       @(4,R14),R4
    00000494 65E2                   MOV.L       @R14,R5
    00000496 2F46                   MOV.L       R4,@-R15
    00000498 2F56                   MOV.L       R5,@-R15
    0000049A 7FE0                   ADD         #-32,R15
    0000049C E040                   MOV         #64,R0     ; H'00000040
    0000049E 01FE                   MOV.L       @(R0,R15),R1; t.b.y
    000004A0 3A1D                   DMULS.L     R1,R10
    000004A2 050A                   STS         MACH,R5
    000004A4 2F52                   MOV.L       R5,@R15
    000004A6 65F3                   MOV         R15,R5
    000004A8 041A                   STS         MACL,R4
    000004AA 7508                   ADD         #8,R5
    000004AC 1F41                   MOV.L       R4,@(4,R15)
    000004AE 2F56                   MOV.L       R5,@-R15
    000004B0 4D0B                   JSR         @R13
    000004B2 E10A                   MOV         #10,R1     ; H'0000000A
    000004B4 7F0C                   ADD         #12,R15
    000004B6 62F6                   MOV.L       @R15+,R2
    000004B8 67F6                   MOV.L       @R15+,R7
    000004BA 6273                   MOV         R7,R2
    000004BC 4200                   SHLL        R2
    000004BE 322A                   SUBC        R2,R2
    000004C0 66F3                   MOV         R15,R6
    000004C2 7608                   ADD         #8,R6
    000004C4 2F22                   MOV.L       R2,@R15
    000004C6 1F71                   MOV.L       R7,@(4,R15)
    000004C8 2F66                   MOV.L       R6,@-R15
    000004CA D746                   MOV.L       L155+46,R7 ; __shlld64
    000004CC 470B                   JSR         @R7
    000004CE E10A                   MOV         #10,R1     ; H'0000000A
    000004D0 7F0C                   ADD         #12,R15
    000004D2 6EF3                   MOV         R15,R14
    000004D4 7E10                   ADD         #16,R14
    000004D6 4C0B                   JSR         @R12
    000004D8 2FE6                   MOV.L       R14,@-R15
    000004DA 7F14                   ADD         #20,R15
    000004DC 61F6                   MOV.L       @R15+,R1
    000004DE 65F6                   MOV.L       @R15+,R5
    000004E0 D142                   MOV.L       L155+54,R1 ; H'00008000
    000004E2 351C                   ADD         R1,R5
    000004E4 7FF8                   ADD         #-8,R15
    000004E6 EE64                   MOV         #100,R14   ; H'00000064
    000004E8 67F3                   MOV         R15,R7
    000004EA 37EC                   ADD         R14,R7
    000004EC 5471                   MOV.L       @(4,R7),R4
    000004EE 6E72                   MOV.L       @R7,R14
    000004F0 2F46                   MOV.L       R4,@-R15
    000004F2 2FE6                   MOV.L       R14,@-R15
    000004F4 7FE0                   ADD         #-32,R15
    000004F6 5EFF                   MOV.L       @(60,R15),R14; t.b.x
    000004F8 64F3                   MOV         R15,R4
    000004FA 3AED                   DMULS.L     R14,R10
    000004FC 7408                   ADD         #8,R4
    000004FE 010A                   STS         MACH,R1
    00000500 071A                   STS         MACL,R7
    00000502 2F12                   MOV.L       R1,@R15
    00000504 1F71                   MOV.L       R7,@(4,R15)
    00000506 2F46                   MOV.L       R4,@-R15
    00000508 4D0B                   JSR         @R13
    0000050A E10A                   MOV         #10,R1     ; H'0000000A
    0000050C 7F0C                   ADD         #12,R15
    0000050E 62F6                   MOV.L       @R15+,R2
    00000510 6EF6                   MOV.L       @R15+,R14
    00000512 62E3                   MOV         R14,R2
    00000514 4200                   SHLL        R2
    00000516 322A                   SUBC        R2,R2
    00000518 66F3                   MOV         R15,R6
    0000051A 7608                   ADD         #8,R6
    0000051C 2F22                   MOV.L       R2,@R15
    0000051E 1FE1                   MOV.L       R14,@(4,R15)
    00000520 2F66                   MOV.L       R6,@-R15
    00000522 D730                   MOV.L       L155+46,R7 ; __shlld64
    00000524 470B                   JSR         @R7
    00000526 E10A                   MOV         #10,R1     ; H'0000000A
    00000528 7F0C                   ADD         #12,R15
    0000052A 6EF3                   MOV         R15,R14
    0000052C 7E10                   ADD         #16,R14
    0000052E 4C0B                   JSR         @R12
    00000530 2FE6                   MOV.L       R14,@-R15
    00000532 7F14                   ADD         #20,R15
    00000534 61F6                   MOV.L       @R15+,R1
    00000536 64F6                   MOV.L       @R15+,R4
    00000538 61F3                   MOV         R15,R1
    0000053A 7164                   ADD         #100,R1
    0000053C 34AC                   ADD         R10,R4
    0000053E 2F16                   MOV.L       R1,@-R15
    00000540 D72B                   MOV.L       L155+58,R7 ; _ivec3f
    00000542 470B                   JSR         @R7
    00000544 E600                   MOV         #0,R6      ; H'00000000
    00000546 7F04                   ADD         #4,R15
             raster.c        160                  c = ivec3f(divff(mulff(t.c.x, int2f(64)), -t.c.z) + int2f(64),
             raster.c        161                       divff(mulff(t.c.y, int2f(64)), -t.c.z) + int2f(32),
             raster.c        162                       0);
    00000548 648B                   NEG         R8,R4
    0000054A 6243                   MOV         R4,R2
    0000054C 4200                   SHLL        R2
    0000054E 322A                   SUBC        R2,R2
    00000550 65F3                   MOV         R15,R5
    00000552 7570                   ADD         #112,R5
    00000554 2522                   MOV.L       R2,@R5
    00000556 1541                   MOV.L       R4,@(4,R5)
    00000558 7FF8                   ADD         #-8,R15
    0000055A E578                   MOV         #120,R5    ; H'00000078
    0000055C 6EF3                   MOV         R15,R14
    0000055E 3E5C                   ADD         R5,R14
    00000560 56E1                   MOV.L       @(4,R14),R6
    00000562 65E2                   MOV.L       @R14,R5
    00000564 2F66                   MOV.L       R6,@-R15
    00000566 2F56                   MOV.L       R5,@-R15
    00000568 7FE0                   ADD         #-32,R15
    0000056A E04C                   MOV         #76,R0     ; H'0000004C
    0000056C 01FE                   MOV.L       @(R0,R15),R1; t.c.y
    0000056E 3A1D                   DMULS.L     R1,R10
    00000570 050A                   STS         MACH,R5
    00000572 2F52                   MOV.L       R5,@R15
    00000574 65F3                   MOV         R15,R5
    00000576 041A                   STS         MACL,R4
    00000578 7508                   ADD         #8,R5
    0000057A 1F41                   MOV.L       R4,@(4,R15)
    0000057C 2F56                   MOV.L       R5,@-R15
    0000057E 4D0B                   JSR         @R13
    00000580 E10A                   MOV         #10,R1     ; H'0000000A
    00000582 7F0C                   ADD         #12,R15
    00000584 62F6                   MOV.L       @R15+,R2
    00000586 66F6                   MOV.L       @R15+,R6
    00000588 6263                   MOV         R6,R2
    0000058A 4200                   SHLL        R2
    0000058C 322A                   SUBC        R2,R2
    0000058E 67F3                   MOV         R15,R7
    00000590 7708                   ADD         #8,R7
    00000592 2F22                   MOV.L       R2,@R15
    00000594 1F61                   MOV.L       R6,@(4,R15)
    00000596 2F76                   MOV.L       R7,@-R15
    00000598 DE12                   MOV.L       L155+46,R14; __shlld64
    0000059A 4E0B                   JSR         @R14
    0000059C E10A                   MOV         #10,R1     ; H'0000000A
    0000059E 7F0C                   ADD         #12,R15
    000005A0 61F3                   MOV         R15,R1
    000005A2 7110                   ADD         #16,R1
    000005A4 4C0B                   JSR         @R12
    000005A6 2F16                   MOV.L       R1,@-R15
    000005A8 7F14                   ADD         #20,R15
    000005AA 64F6                   MOV.L       @R15+,R4
    000005AC 65F6                   MOV.L       @R15+,R5
    000005AE D40F                   MOV.L       L155+54,R4 ; H'00008000
    000005B0 354C                   ADD         R4,R5
    000005B2 A01F                   BRA         L154
    000005B4 7FF8                   ADD         #-8,R15
    000005B6              L155:
    000005B6 00000002               .RES.W      1
    000005B8 <00000000>             .DATA.L     _go
    000005BC <00000000>             .DATA.L     __quick_odd_mvn
    000005C0 <00000000>             .DATA.L     _tbuf
    000005C4 <00000000>             .DATA.L     __quick_evn_mvn
    000005C8 <00000000>             .DATA.L     _gy
    000005CC <00000000>             .DATA.L     _gp
    000005D0 <00000000>             .DATA.L     _move
    000005D4 <00000000>             .DATA.L     _normal
    000005D8 <00000000>             .DATA.L     _subvv
    000005DC <00000000>             .DATA.L     L40
    000005E0 <00000000>             .DATA.L     __shard64
    000005E4 <00000000>             .DATA.L     __shlld64
    000005E8 <00000000>             .DATA.L     __div64s
    000005EC 00008000               .DATA.L     H'00008000
    000005F0 <00000000>             .DATA.L     _ivec3f
    000005F4              L154:
    000005F4 E678                   MOV         #120,R6    ; H'00000078
    000005F6 67F3                   MOV         R15,R7
    000005F8 376C                   ADD         R6,R7
    000005FA 5671                   MOV.L       @(4,R7),R6
    000005FC 6472                   MOV.L       @R7,R4
    000005FE 2F66                   MOV.L       R6,@-R15
    00000600 2F46                   MOV.L       R4,@-R15
    00000602 7FE0                   ADD         #-32,R15
    00000604 E048                   MOV         #72,R0     ; H'00000048
    00000606 0EFE                   MOV.L       @(R0,R15),R14; t.c.x
    00000608 64F3                   MOV         R15,R4
    0000060A 3AED                   DMULS.L     R14,R10
    0000060C 7408                   ADD         #8,R4
    0000060E 060A                   STS         MACH,R6
    00000610 011A                   STS         MACL,R1
    00000612 2F62                   MOV.L       R6,@R15
    00000614 1F11                   MOV.L       R1,@(4,R15)
    00000616 2F46                   MOV.L       R4,@-R15
    00000618 4D0B                   JSR         @R13
    0000061A E10A                   MOV         #10,R1     ; H'0000000A
    0000061C 7F0C                   ADD         #12,R15
    0000061E 62F6                   MOV.L       @R15+,R2
    00000620 6DF6                   MOV.L       @R15+,R13
    00000622 62D3                   MOV         R13,R2
    00000624 4200                   SHLL        R2
    00000626 322A                   SUBC        R2,R2
    00000628 67F3                   MOV         R15,R7
    0000062A 7708                   ADD         #8,R7
    0000062C 2F22                   MOV.L       R2,@R15
    0000062E 1FD1                   MOV.L       R13,@(4,R15)
    00000630 2F76                   MOV.L       R7,@-R15
    00000632 DD2D                   MOV.L       L156+2,R13 ; __shlld64
    00000634 4D0B                   JSR         @R13
    00000636 E10A                   MOV         #10,R1     ; H'0000000A
    00000638 7F0C                   ADD         #12,R15
    0000063A 6EF3                   MOV         R15,R14
    0000063C 7E10                   ADD         #16,R14
    0000063E 4C0B                   JSR         @R12
    00000640 2FE6                   MOV.L       R14,@-R15
    00000642 7F14                   ADD         #20,R15
    00000644 67F6                   MOV.L       @R15+,R7
    00000646 64F6                   MOV.L       @R15+,R4
    00000648 67F3                   MOV         R15,R7
    0000064A 7778                   ADD         #120,R7
    0000064C 34AC                   ADD         R10,R4
    0000064E 2F76                   MOV.L       R7,@-R15
    00000650 DC26                   MOV.L       L156+6,R12 ; _ivec3f
    00000652 4C0B                   JSR         @R12
    00000654 E600                   MOV         #0,R6      ; H'00000000
    00000656 7F04                   ADD         #4,R15
             raster.c        163    
             raster.c        164                  // get bounding box (extremes)
             raster.c        165                  bbox_left   = f2int(min(min(a.x, b.x), c.x));
    00000658 E064                   MOV         #100,R0    ; H'00000064
    0000065A 01FE                   MOV.L       @(R0,R15),R1; b.x
    0000065C E050                   MOV         #80,R0     ; H'00000050
    0000065E 05FE                   MOV.L       @(R0,R15),R5; a.x
    00000660 3513                   CMP/GE      R1,R5
    00000662 8D01                   BT/S        L54
    00000664 6213                   MOV         R1,R2
    00000666 6253                   MOV         R5,R2
    00000668              L54:
    00000668 E078                   MOV         #120,R0    ; H'00000078
    0000066A 0EFE                   MOV.L       @(R0,R15),R14; c.x
    0000066C 32E3                   CMP/GE      R14,R2
    0000066E 8D04                   BT/S        L56
    00000670 62E3                   MOV         R14,R2
    00000672 3513                   CMP/GE      R1,R5
    00000674 8D01                   BT/S        L56
    00000676 6213                   MOV         R1,R2
    00000678 6253                   MOV         R5,R2
    0000067A              L56:
    0000067A E4F6                   MOV         #-10,R4    ; H'FFFFFFF6
    0000067C E0E8                   MOV         #-24,R0    ; H'FFFFFFE8
    0000067E 424C                   SHAD        R4,R2
    00000680 600C                   EXTU.B      R0,R0
    00000682 0F26                   MOV.L       R2,@(R0,R15); bbox_left
             raster.c        166                  bbox_top    = f2int(min(min(a.y, b.y), c.y));
    00000684 E068                   MOV         #104,R0    ; H'00000068
    00000686 04FE                   MOV.L       @(R0,R15),R4; b.y
    00000688 E054                   MOV         #84,R0     ; H'00000054
    0000068A 06FE                   MOV.L       @(R0,R15),R6; a.y
    0000068C 3643                   CMP/GE      R4,R6
    0000068E 8D01                   BT/S        L59
    00000690 6243                   MOV         R4,R2
    00000692 6263                   MOV         R6,R2
    00000694              L59:
    00000694 E07C                   MOV         #124,R0    ; H'0000007C
    00000696 0DFE                   MOV.L       @(R0,R15),R13; c.y
    00000698 32D3                   CMP/GE      R13,R2
    0000069A 8D04                   BT/S        L61
    0000069C 62D3                   MOV         R13,R2
    0000069E 3643                   CMP/GE      R4,R6
    000006A0 8D01                   BT/S        L61
    000006A2 6243                   MOV         R4,R2
    000006A4 6263                   MOV         R6,R2
    000006A6              L61:
             raster.c        167                  bbox_right  = f2int(max(max(a.x, b.x), c.x));
    000006A6 3517                   CMP/GT      R1,R5
    000006A8 E7F6                   MOV         #-10,R7    ; H'FFFFFFF6
    000006AA 427C                   SHAD        R7,R2
    000006AC 6C23                   MOV         R2,R12
    000006AE 8F01                   BF/S        L64
    000006B0 6213                   MOV         R1,R2
    000006B2 6253                   MOV         R5,R2
    000006B4              L64:
    000006B4 32E7                   CMP/GT      R14,R2
    000006B6 8F04                   BF/S        L66
    000006B8 62E3                   MOV         R14,R2
    000006BA 3517                   CMP/GT      R1,R5
    000006BC 8F01                   BF/S        L66
    000006BE 6213                   MOV         R1,R2
    000006C0 6253                   MOV         R5,R2
    000006C2              L66:
             raster.c        168                  bbox_bottom = f2int(max(max(a.y, b.y), c.y));
    000006C2 3647                   CMP/GT      R4,R6
    000006C4 E5F6                   MOV         #-10,R5    ; H'FFFFFFF6
    000006C6 E0DC                   MOV         #-36,R0    ; H'FFFFFFDC
    000006C8 425C                   SHAD        R5,R2
    000006CA 600C                   EXTU.B      R0,R0
    000006CC 0F26                   MOV.L       R2,@(R0,R15); bbox_right
    000006CE 8F01                   BF/S        L69
    000006D0 6243                   MOV         R4,R2
    000006D2 6263                   MOV         R6,R2
    000006D4              L69:
    000006D4 32D7                   CMP/GT      R13,R2
    000006D6 8B0B                   BF          L71
    000006D8 3647                   CMP/GT      R4,R6
    000006DA 8900                   BT          L73
    000006DC 6643                   MOV         R4,R6
    000006DE              L73:
    000006DE E056                   MOV         #86,R0     ; H'00000056
    000006E0 4008                   SHLL2       R0
    000006E2 A008                   BRA         L74
    000006E4 0F66                   MOV.L       R6,@(R0,R15)
    000006E6              L156:
    000006E6 00000002               .RES.W      1
    000006E8 <00000000>             .DATA.L     __shlld64
    000006EC <00000000>             .DATA.L     _ivec3f
    000006F0              L71:
    000006F0 E056                   MOV         #86,R0     ; H'00000056
    000006F2 4008                   SHLL2       R0
    000006F4 0FD6                   MOV.L       R13,@(R0,R15)
    000006F6              L74:
    000006F6 E056                   MOV         #86,R0     ; H'00000056
    000006F8 4008                   SHLL2       R0
    000006FA 05FE                   MOV.L       @(R0,R15),R5
    000006FC E6F6                   MOV         #-10,R6    ; H'FFFFFFF6
    000006FE 456C                   SHAD        R6,R5
    00000700 0F56                   MOV.L       R5,@(R0,R15)
             raster.c        169    
             raster.c        170                  // is it entirely offscreen? (sanity check)
             raster.c        171                  if (bbox_right < 0 || bbox_left > 127 || bbox_bottom < 0 || bbox_top > 63) continue;
    00000702 7084                   ADD         #-124,R0
    00000704 07FE                   MOV.L       @(R0,R15),R7; bbox_right
    00000706 4711                   CMP/PZ      R7
    00000708 8901                   BT          L171
    0000070A A65E                   BRA         L40
    0000070C 0009                   NOP
    0000070E              L171:
    0000070E E0E8                   MOV         #-24,R0    ; H'FFFFFFE8
    00000710 600C                   EXTU.B      R0,R0
    00000712 06FE                   MOV.L       @(R0,R15),R6; bbox_left
    00000714 E27F                   MOV         #127,R2    ; H'0000007F
    00000716 3627                   CMP/GT      R2,R6
    00000718 8B01                   BF          L172
    0000071A A656                   BRA         L40
    0000071C 0009                   NOP
    0000071E              L172:
    0000071E E056                   MOV         #86,R0     ; H'00000056
    00000720 4008                   SHLL2       R0
    00000722 02FE                   MOV.L       @(R0,R15),R2
    00000724 4211                   CMP/PZ      R2
    00000726 8901                   BT          L173
    00000728 A64F                   BRA         L40
    0000072A 0009                   NOP
    0000072C              L173:
    0000072C E23F                   MOV         #63,R2     ; H'0000003F
    0000072E 3C27                   CMP/GT      R2,R12
    00000730 8B01                   BF          L174
    00000732 A64A                   BRA         L40
    00000734 0009                   NOP
    00000736              L174:
             raster.c        172    
             raster.c        173                  q_cnt++;
    00000736 E0E0                   MOV         #-32,R0    ; H'FFFFFFE0
    00000738 600C                   EXTU.B      R0,R0
    0000073A 0DFE                   MOV.L       @(R0,R15),R13; q_cnt
             raster.c        174    
             raster.c        175                  // U and V are the barycentric coordinates of a pixel within the current triangle in screen space
             raster.c        176                  // their range is from 0 to 1, calculate with both tiling and texture size
             raster.c        177    
             raster.c        178                  u_mult = t.tx->w * t.tx->u_tile_size;
    0000073C 5EF9                   MOV.L       @(36,R15),R14; t.tx
    0000073E 7D01                   ADD         #1,R13
    00000740 0FD6                   MOV.L       R13,@(R0,R15); q_cnt
    00000742 84E4                   MOV.B       @(4,R14),R0; (part of)(tx)->
    00000744 6DE0                   MOV.B       @R14,R13   ; (tx)->w
    00000746 E1FC                   MOV         #-4,R1     ; H'FFFFFFFC
    00000748 640C                   EXTU.B      R0,R4
    0000074A 6DDC                   EXTU.B      R13,R13
    0000074C 441D                   SHLD        R1,R4
             raster.c        179                  v_mult = t.tx->h * t.tx->v_tile_size;
    0000074E 04D7                   MUL.L       R13,R4
    00000750 6203                   MOV         R0,R2
    00000752 84E1                   MOV.B       @(1,R14),R0; (tx)->h
    00000754 0E1A                   STS         MACL,R14
    00000756 640C                   EXTU.B      R0,R4
    00000758 6023                   MOV         R2,R0
    0000075A C90F                   AND         #15,R0
    0000075C 0047                   MUL.L       R4,R0
    0000075E 0D1A                   STS         MACL,R13
             raster.c        180    
             raster.c        181                  // the following code does barycentric coord calculation (u and v)
             raster.c        182                  // src: https://web.archive.org/web/20240910155457/https://blackpawn.com/texts/pointinpoly/
             raster.c        183                  
             raster.c        184              // some (or most) of it has been ~mutilated~ for ~optimization~
             raster.c        185                  // this is NOT some especially maintainable nor good code. who cares? it's fast
             raster.c        186                  // especially the parts related to v2, the only changing vector here
             raster.c        187                  // its dot products are incremented in the for loop iterators!
             raster.c        188    
             raster.c        189                  // u is on side CA and v is on side BA
             raster.c        190    
             raster.c        191                  v0 = divvi(subvv(c, a), OF_SC);
    00000760 7FE8                   ADD         #-24,R15
    00000762 E568                   MOV         #104,R5    ; H'00000068
    00000764 62F3                   MOV         R15,R2
    00000766 D7C7                   MOV.L       L158+2,R7  ; __quick_odd_mvn
    00000768 61F3                   MOV         R15,R1
    0000076A 325C                   ADD         R5,R2
    0000076C 470B                   JSR         @R7
    0000076E E00C                   MOV         #12,R0     ; H'0000000C
    00000770 7FF4                   ADD         #-12,R15
    00000772 7534                   ADD         #52,R5
    00000774 62F3                   MOV         R15,R2
    00000776 64F3                   MOV         R15,R4
    00000778 61F3                   MOV         R15,R1
    0000077A 325C                   ADD         R5,R2
    0000077C E00C                   MOV         #12,R0     ; H'0000000C
    0000077E 470B                   JSR         @R7
    00000780 7418                   ADD         #24,R4
    00000782 D5C1                   MOV.L       L158+6,R5  ; _subvv
    00000784 450B                   JSR         @R5
    00000786 2F46                   MOV.L       R4,@-R15
    00000788 7F1C                   ADD         #28,R15
    0000078A E690                   MOV         #-112,R6   ; H'FFFFFF90
    0000078C 666C                   EXTU.B      R6,R6
    0000078E 67F3                   MOV         R15,R7
    00000790 376C                   ADD         R6,R7
    00000792 2F76                   MOV.L       R7,@-R15
    00000794 D1BD                   MOV.L       L158+10,R1 ; _divvi
    00000796 410B                   JSR         @R1
    00000798 E408                   MOV         #8,R4      ; H'00000008
    0000079A 7FF8                   ADD         #-8,R15
    0000079C E668                   MOV         #104,R6    ; H'00000068
    0000079E 62F3                   MOV         R15,R2
    000007A0 D5B8                   MOV.L       L158+2,R5  ; __quick_odd_mvn
             raster.c        192                  v1 = divvi(subvv(b, a), OF_SC);
    000007A2 61F3                   MOV         R15,R1
    000007A4 326C                   ADD         R6,R2
    000007A6 450B                   JSR         @R5
    000007A8 E00C                   MOV         #12,R0     ; H'0000000C
    000007AA 7FF4                   ADD         #-12,R15
    000007AC 7620                   ADD         #32,R6
    000007AE 62F3                   MOV         R15,R2
    000007B0 64F3                   MOV         R15,R4
    000007B2 61F3                   MOV         R15,R1
    000007B4 326C                   ADD         R6,R2
    000007B6 E00C                   MOV         #12,R0     ; H'0000000C
    000007B8 450B                   JSR         @R5
    000007BA 7418                   ADD         #24,R4
    000007BC D5B2                   MOV.L       L158+6,R5  ; _subvv
    000007BE 450B                   JSR         @R5
    000007C0 2F46                   MOV.L       R4,@-R15
    000007C2 7F1C                   ADD         #28,R15
    000007C4 E69C                   MOV         #-100,R6   ; H'FFFFFF9C
    000007C6 666C                   EXTU.B      R6,R6
    000007C8 67F3                   MOV         R15,R7
    000007CA 376C                   ADD         R6,R7
    000007CC 2F76                   MOV.L       R7,@-R15
    000007CE D7AF                   MOV.L       L158+10,R7 ; _divvi
    000007D0 470B                   JSR         @R7
    000007D2 E408                   MOV         #8,R4      ; H'00000008
    000007D4 7F10                   ADD         #16,R15
             raster.c        193                  v0x_sc = divfi(v0.x, OF_SC); v1x_sc = divfi(v1.x, OF_SC);
    000007D6 E084                   MOV         #-124,R0   ; H'FFFFFF84
    000007D8 600C                   EXTU.B      R0,R0
    000007DA 06FE                   MOV.L       @(R0,R15),R6; v0.x
    000007DC 7068                   ADD         #104,R0
    000007DE 4611                   CMP/PZ      R6
    000007E0 8D03                   BT/S        L80
    000007E2 0F66                   MOV.L       R6,@(R0,R15)
    000007E4 02FE                   MOV.L       @(R0,R15),R2
    000007E6 7207                   ADD         #7,R2
    000007E8 0F26                   MOV.L       R2,@(R0,R15)
    000007EA              L80:
    000007EA E0EC                   MOV         #-20,R0    ; H'FFFFFFEC
    000007EC 600C                   EXTU.B      R0,R0
    000007EE 02FE                   MOV.L       @(R0,R15),R2
    000007F0 E6FD                   MOV         #-3,R6     ; H'FFFFFFFD
    000007F2 426C                   SHAD        R6,R2
    000007F4 0F26                   MOV.L       R2,@(R0,R15)
    000007F6 70A4                   ADD         #-92,R0
    000007F8 05FE                   MOV.L       @(R0,R15),R5; v1.x
    000007FA 7060                   ADD         #96,R0
    000007FC 4511                   CMP/PZ      R5
    000007FE 8D03                   BT/S        L82
    00000800 0F56                   MOV.L       R5,@(R0,R15)
    00000802 02FE                   MOV.L       @(R0,R15),R2
    00000804 7207                   ADD         #7,R2
    00000806 0F26                   MOV.L       R2,@(R0,R15)
    00000808              L82:
    00000808 E0F0                   MOV         #-16,R0    ; H'FFFFFFF0
    0000080A 600C                   EXTU.B      R0,R0
    0000080C 01FE                   MOV.L       @(R0,R15),R1
    0000080E 416C                   SHAD        R6,R1
    00000810 0F16                   MOV.L       R1,@(R0,R15)
             raster.c        194                  
             raster.c        195                  dot00 = dotp2(v0, v0);
    00000812 7FF0                   ADD         #-16,R15
    00000814 70A4                   ADD         #-92,R0
    00000816 01FE                   MOV.L       @(R0,R15),R1; v0.x
    00000818 65F3                   MOV         R15,R5
    0000081A 311D                   DMULS.L     R1,R1
    0000081C 7508                   ADD         #8,R5
    0000081E 020A                   STS         MACH,R2
    00000820 041A                   STS         MACL,R4
    00000822 2F22                   MOV.L       R2,@R15
    00000824 1F41                   MOV.L       R4,@(4,R15)
    00000826 2F56                   MOV.L       R5,@-R15
    00000828 D699                   MOV.L       L158+14,R6 ; __shard64
    0000082A 460B                   JSR         @R6
    0000082C E10A                   MOV         #10,R1     ; H'0000000A
    0000082E 7F0C                   ADD         #12,R15
    00000830 67F6                   MOV.L       @R15+,R7
    00000832 7064                   ADD         #100,R0
    00000834 67F2                   MOV.L       @R15,R7
    00000836 0F76                   MOV.L       R7,@(R0,R15)
    00000838 7FF4                   ADD         #-12,R15
    0000083A 70A0                   ADD         #-96,R0
    0000083C 04FE                   MOV.L       @(R0,R15),R4; v0.y
    0000083E 344D                   DMULS.L     R4,R4
    00000840 64F3                   MOV         R15,R4
    00000842 7408                   ADD         #8,R4
    00000844 050A                   STS         MACH,R5
    00000846 011A                   STS         MACL,R1
    00000848 2F52                   MOV.L       R5,@R15
    0000084A 1F11                   MOV.L       R1,@(4,R15)
    0000084C 2F46                   MOV.L       R4,@-R15
    0000084E D590                   MOV.L       L158+14,R5 ; __shard64
    00000850 450B                   JSR         @R5
    00000852 E10A                   MOV         #10,R1     ; H'0000000A
    00000854 7F0C                   ADD         #12,R15
    00000856 67F6                   MOV.L       @R15+,R7
    00000858 67F6                   MOV.L       @R15+,R7
    0000085A 705C                   ADD         #92,R0
    0000085C 01FE                   MOV.L       @(R0,R15),R1
    0000085E 317C                   ADD         R7,R1
    00000860 0F16                   MOV.L       R1,@(R0,R15)
             raster.c        196                  dot01 = dotp2(v0, v1);
    00000862 7FF0                   ADD         #-16,R15
    00000864 70AC                   ADD         #-84,R0
    00000866 02FE                   MOV.L       @(R0,R15),R2; v1.x
    00000868 70F4                   ADD         #-12,R0
    0000086A 01FE                   MOV.L       @(R0,R15),R1; v0.x
    0000086C 321D                   DMULS.L     R1,R2
    0000086E 051A                   STS         MACL,R5
    00000870 1F51                   MOV.L       R5,@(4,R15)
    00000872 65F3                   MOV         R15,R5
    00000874 040A                   STS         MACH,R4
    00000876 7508                   ADD         #8,R5
    00000878 2F42                   MOV.L       R4,@R15
    0000087A 2F56                   MOV.L       R5,@-R15
    0000087C D684                   MOV.L       L158+14,R6 ; __shard64
    0000087E 460B                   JSR         @R6
    00000880 E10A                   MOV         #10,R1     ; H'0000000A
    00000882 7F0C                   ADD         #12,R15
    00000884 67F6                   MOV.L       @R15+,R7
    00000886 7068                   ADD         #104,R0
    00000888 67F2                   MOV.L       @R15,R7
    0000088A 0F76                   MOV.L       R7,@(R0,R15)
    0000088C 7FF4                   ADD         #-12,R15
    0000088E 70A8                   ADD         #-88,R0
    00000890 07FE                   MOV.L       @(R0,R15),R7; v1.y
    00000892 70F4                   ADD         #-12,R0
    00000894 01FE                   MOV.L       @(R0,R15),R1; v0.y
    00000896 65F3                   MOV         R15,R5
    00000898 371D                   DMULS.L     R1,R7
    0000089A 7508                   ADD         #8,R5
    0000089C 010A                   STS         MACH,R1
    0000089E 041A                   STS         MACL,R4
    000008A0 2F12                   MOV.L       R1,@R15
    000008A2 1F41                   MOV.L       R4,@(4,R15)
    000008A4 2F56                   MOV.L       R5,@-R15
    000008A6 D67A                   MOV.L       L158+14,R6 ; __shard64
    000008A8 460B                   JSR         @R6
    000008AA E10A                   MOV         #10,R1     ; H'0000000A
    000008AC 7F0C                   ADD         #12,R15
    000008AE 67F6                   MOV.L       @R15+,R7
    000008B0 67F6                   MOV.L       @R15+,R7
    000008B2 7060                   ADD         #96,R0
    000008B4 02FE                   MOV.L       @(R0,R15),R2
    000008B6 327C                   ADD         R7,R2
    000008B8 0F26                   MOV.L       R2,@(R0,R15)
             raster.c        197                  dot11 = dotp2(v1, v1);
    000008BA 7FF0                   ADD         #-16,R15
    000008BC 70A8                   ADD         #-88,R0
    000008BE 04FE                   MOV.L       @(R0,R15),R4; v1.x
    000008C0 344D                   DMULS.L     R4,R4
    000008C2 64F3                   MOV         R15,R4
    000008C4 7408                   ADD         #8,R4
    000008C6 050A                   STS         MACH,R5
    000008C8 011A                   STS         MACL,R1
    000008CA 2F52                   MOV.L       R5,@R15
    000008CC 1F11                   MOV.L       R1,@(4,R15)
    000008CE 2F46                   MOV.L       R4,@-R15
    000008D0 D56F                   MOV.L       L158+14,R5 ; __shard64
    000008D2 450B                   JSR         @R5
    000008D4 E10A                   MOV         #10,R1     ; H'0000000A
    000008D6 7F0C                   ADD         #12,R15
    000008D8 66F6                   MOV.L       @R15+,R6
    000008DA 7060                   ADD         #96,R0
    000008DC 66F2                   MOV.L       @R15,R6
    000008DE 0F66                   MOV.L       R6,@(R0,R15)
    000008E0 7FF4                   ADD         #-12,R15
    000008E2 70A4                   ADD         #-92,R0
    000008E4 07FE                   MOV.L       @(R0,R15),R7; v1.y
    000008E6 377D                   DMULS.L     R7,R7
    000008E8 011A                   STS         MACL,R1
    000008EA 1F11                   MOV.L       R1,@(4,R15)
    000008EC 61F3                   MOV         R15,R1
    000008EE 070A                   STS         MACH,R7
    000008F0 7108                   ADD         #8,R1
    000008F2 2F72                   MOV.L       R7,@R15
    000008F4 2F16                   MOV.L       R1,@-R15
    000008F6 D466                   MOV.L       L158+14,R4 ; __shard64
    000008F8 440B                   JSR         @R4
    000008FA E10A                   MOV         #10,R1     ; H'0000000A
    000008FC 7F0C                   ADD         #12,R15
    000008FE 65F6                   MOV.L       @R15+,R5
    00000900 65F6                   MOV.L       @R15+,R5
    00000902 7058                   ADD         #88,R0
    00000904 02FE                   MOV.L       @(R0,R15),R2
    00000906 325C                   ADD         R5,R2
    00000908 0F26                   MOV.L       R2,@(R0,R15)
             raster.c        198                  denom = mulff(dot00, dot11) - mulff(dot01, dot01);
    0000090A 7FF0                   ADD         #-16,R15
    0000090C 7010                   ADD         #16,R0
    0000090E 04FE                   MOV.L       @(R0,R15),R4
    00000910 70F8                   ADD         #-8,R0
    00000912 07FE                   MOV.L       @(R0,R15),R7
    00000914 347D                   DMULS.L     R7,R4
    00000916 64F3                   MOV         R15,R4
    00000918 7408                   ADD         #8,R4
    0000091A 010A                   STS         MACH,R1
    0000091C 051A                   STS         MACL,R5
    0000091E 2F12                   MOV.L       R1,@R15
    00000920 1F51                   MOV.L       R5,@(4,R15)
    00000922 2F46                   MOV.L       R4,@-R15
    00000924 D55A                   MOV.L       L158+14,R5 ; __shard64
    00000926 450B                   JSR         @R5
    00000928 E10A                   MOV         #10,R1     ; H'0000000A
    0000092A 7F0C                   ADD         #12,R15
    0000092C 67F6                   MOV.L       @R15+,R7
    0000092E 67F2                   MOV.L       @R15,R7
    00000930 0F76                   MOV.L       R7,@(R0,R15)
    00000932 7FF4                   ADD         #-12,R15
    00000934 7004                   ADD         #4,R0
    00000936 07FE                   MOV.L       @(R0,R15),R7
    00000938 64F3                   MOV         R15,R4
    0000093A 377D                   DMULS.L     R7,R7
    0000093C 7408                   ADD         #8,R4
    0000093E 020A                   STS         MACH,R2
    00000940 011A                   STS         MACL,R1
    00000942 2F22                   MOV.L       R2,@R15
    00000944 1F11                   MOV.L       R1,@(4,R15)
    00000946 2F46                   MOV.L       R4,@-R15
    00000948 D551                   MOV.L       L158+14,R5 ; __shard64
    0000094A 450B                   JSR         @R5
    0000094C E10A                   MOV         #10,R1     ; H'0000000A
    0000094E 7F0C                   ADD         #12,R15
    00000950 67F6                   MOV.L       @R15+,R7
    00000952 67F6                   MOV.L       @R15+,R7
    00000954 70F8                   ADD         #-8,R0
    00000956 04FE                   MOV.L       @(R0,R15),R4
    00000958 3478                   SUB         R7,R4
    0000095A 0F46                   MOV.L       R4,@(R0,R15)
             raster.c        199    
             raster.c        200                  // 1/z and U/z V/z coordinates of vertices a, b and c (for perspective correction)
             raster.c        201                  // https://en.wikipedia.org/wiki/Texture_mapping#Perspective_correctness
             raster.c        202                  
             raster.c        203                  // ozX, uzX and vzX are One over Z, U/Z and V/Z calculated at point (X) of current triangle
             raster.c        204                  // U and V are used to interpolate them across the surface
             raster.c        205    
             raster.c        206                  oza = divff(int2f(ZREC_MULT), t.a.z);
    0000095C 7FF8                   ADD         #-8,R15
    0000095E E540                   MOV         #64,R5     ; H'00000040
    00000960 4518                   SHLL8       R5
    00000962 6253                   MOV         R5,R2
    00000964 4200                   SHLL        R2
    00000966 322A                   SUBC        R2,R2
    00000968 1F51                   MOV.L       R5,@(4,R15)
    0000096A E5A4                   MOV         #-92,R5    ; H'FFFFFFA4
    0000096C 655C                   EXTU.B      R5,R5
    0000096E 61F3                   MOV         R15,R1
    00000970 315C                   ADD         R5,R1
    00000972 2F22                   MOV.L       R2,@R15
    00000974 2F16                   MOV.L       R1,@-R15
    00000976 D447                   MOV.L       L158+18,R4 ; __shlld64
    00000978 E10A                   MOV         #10,R1     ; H'0000000A
    0000097A 440B                   JSR         @R4
    0000097C 62B3                   MOV         R11,R2
    0000097E 4200                   SHLL        R2
    00000980 322A                   SUBC        R2,R2
    00000982 2F26                   MOV.L       R2,@-R15
    00000984 7508                   ADD         #8,R5
    00000986 67F3                   MOV         R15,R7
    00000988 375C                   ADD         R5,R7
    0000098A 1FB1                   MOV.L       R11,@(4,R15)
    0000098C 5B71                   MOV.L       @(4,R7),R11
    0000098E 6272                   MOV.L       @R7,R2
    00000990 2FB6                   MOV.L       R11,@-R15
    00000992 2F26                   MOV.L       R2,@-R15
    00000994 6BF3                   MOV         R15,R11
    00000996 7B10                   ADD         #16,R11
    00000998 2FB6                   MOV.L       R11,@-R15
    0000099A DB3F                   MOV.L       L158+22,R11; __div64s
    0000099C 4B0B                   JSR         @R11
    0000099E 0009                   NOP
    000009A0 7F14                   ADD         #20,R15
    000009A2 61F6                   MOV.L       @R15+,R1
    000009A4 7008                   ADD         #8,R0
    000009A6 61F2                   MOV.L       @R15,R1
    000009A8 0F16                   MOV.L       R1,@(R0,R15)
    000009AA 7FF4                   ADD         #-12,R15
             raster.c        207                  ozb = divff(int2f(ZREC_MULT), t.b.z);
    000009AC 6293                   MOV         R9,R2
    000009AE 4200                   SHLL        R2
    000009B0 322A                   SUBC        R2,R2
    000009B2 2F22                   MOV.L       R2,@R15
    000009B4 E2AC                   MOV         #-84,R2    ; H'FFFFFFAC
    000009B6 622C                   EXTU.B      R2,R2
    000009B8 64F3                   MOV         R15,R4
    000009BA 342C                   ADD         R2,R4
    000009BC 5541                   MOV.L       @(4,R4),R5
    000009BE 6742                   MOV.L       @R4,R7
    000009C0 1F91                   MOV.L       R9,@(4,R15)
    000009C2 2F56                   MOV.L       R5,@-R15
    000009C4 2F76                   MOV.L       R7,@-R15
    000009C6 65F3                   MOV         R15,R5
    000009C8 7510                   ADD         #16,R5
    000009CA 4B0B                   JSR         @R11
    000009CC 2F56                   MOV.L       R5,@-R15
    000009CE 7F14                   ADD         #20,R15
    000009D0 62F6                   MOV.L       @R15+,R2
    000009D2 7004                   ADD         #4,R0
    000009D4 69F2                   MOV.L       @R15,R9
    000009D6 0F96                   MOV.L       R9,@(R0,R15)
    000009D8 7FF4                   ADD         #-12,R15
             raster.c        208                  ozc = divff(int2f(ZREC_MULT), t.c.z);
    000009DA 6283                   MOV         R8,R2
    000009DC 4200                   SHLL        R2
    000009DE 322A                   SUBC        R2,R2
    000009E0 1F81                   MOV.L       R8,@(4,R15)
    000009E2 E8AC                   MOV         #-84,R8    ; H'FFFFFFAC
    000009E4 688C                   EXTU.B      R8,R8
    000009E6 67F3                   MOV         R15,R7
    000009E8 378C                   ADD         R8,R7
    000009EA 5671                   MOV.L       @(4,R7),R6
    000009EC 6872                   MOV.L       @R7,R8
    000009EE 2F22                   MOV.L       R2,@R15
    000009F0 2F66                   MOV.L       R6,@-R15
    000009F2 2F86                   MOV.L       R8,@-R15
    000009F4 68F3                   MOV         R15,R8
    000009F6 7810                   ADD         #16,R8
    000009F8 4B0B                   JSR         @R11
    000009FA 2F86                   MOV.L       R8,@-R15
    000009FC 7F14                   ADD         #20,R15
    000009FE 64F6                   MOV.L       @R15+,R4
    00000A00 7004                   ADD         #4,R0
    00000A02 6BF2                   MOV.L       @R15,R11
    00000A04 0FB6                   MOV.L       R11,@(R0,R15)
    00000A06 7FF4                   ADD         #-12,R15
             raster.c        209                  
             raster.c        210                  vzb = mulff(int2f(u_mult), ozb); // V is max in point B, 0 in point C
    00000A08 64ED                   EXTU.W      R14,R4
    00000A0A 4418                   SHLL8       R4
    00000A0C 4408                   SHLL2       R4
    00000A0E 394D                   DMULS.L     R4,R9
    00000A10 67F3                   MOV         R15,R7
    00000A12 7708                   ADD         #8,R7
    00000A14 090A                   STS         MACH,R9
    00000A16 051A                   STS         MACL,R5
    00000A18 2F92                   MOV.L       R9,@R15
    00000A1A 1F51                   MOV.L       R5,@(4,R15)
    00000A1C 2F76                   MOV.L       R7,@-R15
    00000A1E D81C                   MOV.L       L158+14,R8 ; __shard64
    00000A20 480B                   JSR         @R8
    00000A22 E10A                   MOV         #10,R1     ; H'0000000A
    00000A24 7F0C                   ADD         #12,R15
    00000A26 69F6                   MOV.L       @R15+,R9
    00000A28 7004                   ADD         #4,R0
    00000A2A 69F2                   MOV.L       @R15,R9
    00000A2C 0F96                   MOV.L       R9,@(R0,R15)
    00000A2E 7FF4                   ADD         #-12,R15
             raster.c        211                  uzc = mulff(int2f(v_mult), ozc); // U is max in point C, 0 in point B
    00000A30 6EDD                   EXTU.W      R13,R14
    00000A32 4E18                   SHLL8       R14
    00000A34 4E08                   SHLL2       R14
    00000A36 3BED                   DMULS.L     R14,R11
    00000A38 67F3                   MOV         R15,R7
    00000A3A 7708                   ADD         #8,R7
    00000A3C 0B0A                   STS         MACH,R11
    00000A3E 041A                   STS         MACL,R4
    00000A40 2FB2                   MOV.L       R11,@R15
    00000A42 1F41                   MOV.L       R4,@(4,R15)
    00000A44 2F76                   MOV.L       R7,@-R15
    00000A46 D812                   MOV.L       L158+14,R8 ; __shard64
    00000A48 480B                   JSR         @R8
    00000A4A E10A                   MOV         #10,R1     ; H'0000000A
    00000A4C 7F0C                   ADD         #12,R15
    00000A4E 69F6                   MOV.L       @R15+,R9
    00000A50 7004                   ADD         #4,R0
    00000A52 69F2                   MOV.L       @R15,R9
    00000A54 0F96                   MOV.L       R9,@(R0,R15)
    00000A56 7F04                   ADD         #4,R15
    00000A58 E3D0                   MOV         #-48,R3    ; H'FFFFFFD0
    00000A5A 633C                   EXTU.B      R3,R3
    00000A5C 33FC                   ADD         R15,R3
             raster.c        212    
             raster.c        213                  // 1. PRECALCULATE everything that can be precalculated!
             raster.c        214                  // 2. If needed, split vectors into coordinates and use them separately!
             raster.c        215                  // 3. Remember what dot products are, avoid recalculating 'em if only a single coordinate has changed!
             raster.c        216                  // 4. INTERPOLATE everything that can be interpolated!
             raster.c        217                  //              - Sun Tzu, The Art of War
             raster.c        218    
             raster.c        219                  // iterate by row, find leftmost and rightmost pixels and calculate 1/Z, U/Z and V/Z at these points (_zP is left, _zQ is right)
             raster.c        220                  //  then interpolate between by column
             raster.c        221                  //  Ui and Vi are the real texture coordinates
             raster.c        222                  //  1/Z, 1/Ui and 1/Vi are interpolated because they are linear across the surface in screen space
             raster.c        223    
             raster.c        224                  for (yiter = bbox_top; yiter <= bbox_bottom; yiter += 1) {
    00000A5E 0FC6                   MOV.L       R12,@(R0,R15); yiter
    00000A60 5C36                   MOV.L       @(24,R3),R12; bbox_left
    00000A62 5833                   MOV.L       @(12,R3),R8; bbox_right
    00000A64 4C18                   SHLL8       R12
    00000A66 5B37                   MOV.L       @(28,R3),R11
    00000A68 5E38                   MOV.L       @(32,R3),R14
    00000A6A 563C                   MOV.L       @(48,R3),R6
    00000A6C 4C08                   SHLL2       R12
    00000A6E 7004                   ADD         #4,R0
    00000A70 4818                   SHLL8       R8
    00000A72 0FC6                   MOV.L       R12,@(R0,R15)
    00000A74 6DBB                   NEG         R11,R13
    00000A76 6CEB                   NEG         R14,R12
    00000A78 4808                   SHLL2       R8
    00000A7A 7004                   ADD         #4,R0
    00000A7C 13D1                   MOV.L       R13,@(4,R3)
    00000A7E A00D                   BRA         L157
    00000A80 4600                   SHLL        R6
    00000A82              L158:
    00000A82 00000002               .RES.W      1
    00000A84 <00000000>             .DATA.L     __quick_odd_mvn
    00000A88 <00000000>             .DATA.L     _subvv
    00000A8C <00000000>             .DATA.L     _divvi
    00000A90 <00000000>             .DATA.L     __shard64
    00000A94 <00000000>             .DATA.L     __shlld64
    00000A98 <00000000>             .DATA.L     __div64s
    00000A9C              L157:
    00000A9C 23C2                   MOV.L       R12,@R3
    00000A9E 0F86                   MOV.L       R8,@(R0,R15)
    00000AA0 366A                   SUBC        R6,R6
    00000AA2 E9A4                   MOV         #-92,R9    ; H'FFFFFFA4
    00000AA4 699C                   EXTU.B      R9,R9
    00000AA6 6DF3                   MOV         R15,R13
    00000AA8 3D9C                   ADD         R9,R13
    00000AAA 593C                   MOV.L       @(48,R3),R9
    00000AAC 2D62                   MOV.L       R6,@R13
    00000AAE A483                   BRA         L83
    00000AB0 1D91                   MOV.L       R9,@(4,R13)
    00000AB2              L84:
             raster.c        225                          if (interlace.state && (yiter & 1) != (frame & 1)) continue;
    00000AB2 D177                   MOV.L       L159+2,R1  ; _interlace
    00000AB4 6610                   MOV.B       @R1,R6     ; interlace.state
    00000AB6 2668                   TST         R6,R6
    00000AB8 890B                   BT          L86
    00000ABA E046                   MOV         #70,R0     ; H'00000046
    00000ABC 4008                   SHLL2       R0
    00000ABE 00FE                   MOV.L       @(R0,R15),R0; yiter
    00000AC0 D274                   MOV.L       L159+6,R2  ; _frame
    00000AC2 C901                   AND         #1,R0
    00000AC4 6603                   MOV         R0,R6
    00000AC6 6022                   MOV.L       @R2,R0     ; frame
    00000AC8 C901                   AND         #1,R0
    00000ACA 3600                   CMP/EQ      R0,R6
    00000ACC 8901                   BT          L175
    00000ACE A46E                   BRA         L87
    00000AD0 0009                   NOP
    00000AD2              L175:
    00000AD2              L86:
             raster.c        226                          if (yiter < 0 || yiter >= 64) continue;
    00000AD2 E046                   MOV         #70,R0     ; H'00000046
    00000AD4 4008                   SHLL2       R0
    00000AD6 02FE                   MOV.L       @(R0,R15),R2; yiter
    00000AD8 4211                   CMP/PZ      R2
    00000ADA 8901                   BT          L176
    00000ADC A467                   BRA         L87
    00000ADE 0009                   NOP
    00000AE0              L176:
    00000AE0 06FE                   MOV.L       @(R0,R15),R6; yiter
    00000AE2 E240                   MOV         #64,R2     ; H'00000040
    00000AE4 3623                   CMP/GE      R2,R6
    00000AE6 8B01                   BF          L177
    00000AE8 A461                   BRA         L87
    00000AEA 0009                   NOP
    00000AEC              L177:
             raster.c        227    
             raster.c        228                          v2 = divvi(subvv(ivec3f(int2f(bbox_left), int2f(yiter), 0), a), OF_SC);
    00000AEC 09FE                   MOV.L       @(R0,R15),R9; yiter
    00000AEE 4918                   SHLL8       R9
    00000AF0 4908                   SHLL2       R9
    00000AF2 7FE8                   ADD         #-24,R15
    00000AF4 E568                   MOV         #104,R5    ; H'00000068
    00000AF6 62F3                   MOV         R15,R2
    00000AF8 D867                   MOV.L       L159+10,R8 ; __quick_odd_mvn
    00000AFA 61F3                   MOV         R15,R1
    00000AFC 325C                   ADD         R5,R2
    00000AFE 480B                   JSR         @R8
    00000B00 E00C                   MOV         #12,R0     ; H'0000000C
    00000B02 7FF4                   ADD         #-12,R15
    00000B04 6BF3                   MOV         R15,R11
    00000B06 2FB6                   MOV.L       R11,@-R15
    00000B08 E051                   MOV         #81,R0     ; H'00000051
    00000B0A 4008                   SHLL2       R0
    00000B0C DB63                   MOV.L       L159+14,R11; _ivec3f
    00000B0E 04FE                   MOV.L       @(R0,R15),R4
    00000B10 E600                   MOV         #0,R6      ; H'00000000
    00000B12 4B0B                   JSR         @R11
    00000B14 6593                   MOV         R9,R5
    00000B16 7F04                   ADD         #4,R15
    00000B18 6CF3                   MOV         R15,R12
    00000B1A 7C18                   ADD         #24,R12
    00000B1C 2FC6                   MOV.L       R12,@-R15
    00000B1E DC60                   MOV.L       L159+18,R12; _subvv
    00000B20 4C0B                   JSR         @R12
    00000B22 0009                   NOP
    00000B24 7F1C                   ADD         #28,R15
    00000B26 E7B8                   MOV         #-72,R7    ; H'FFFFFFB8
    00000B28 677C                   EXTU.B      R7,R7
    00000B2A 6DF3                   MOV         R15,R13
    00000B2C 3D7C                   ADD         R7,R13
    00000B2E 2FD6                   MOV.L       R13,@-R15
    00000B30 DC5C                   MOV.L       L159+22,R12; _divvi
    00000B32 4C0B                   JSR         @R12
    00000B34 E408                   MOV         #8,R4      ; H'00000008
             raster.c        229                          dot02 = dotp2(v0, v2);
    00000B36 E094                   MOV         #-108,R0   ; H'FFFFFF94
    00000B38 600C                   EXTU.B      R0,R0
    00000B3A 0EFE                   MOV.L       @(R0,R15),R14; v0.x
    00000B3C 7028                   ADD         #40,R0
    00000B3E 04FE                   MOV.L       @(R0,R15),R4; v2.x
    00000B40 61F3                   MOV         R15,R1
    00000B42 34ED                   DMULS.L     R14,R4
    00000B44 7108                   ADD         #8,R1
    00000B46 0E0A                   STS         MACH,R14
    00000B48 081A                   STS         MACL,R8
    00000B4A 2FE2                   MOV.L       R14,@R15
    00000B4C 1F81                   MOV.L       R8,@(4,R15)
    00000B4E 2F16                   MOV.L       R1,@-R15
    00000B50 DC55                   MOV.L       L159+26,R12; __shard64
    00000B52 4C0B                   JSR         @R12
    00000B54 E10A                   MOV         #10,R1     ; H'0000000A
    00000B56 7F0C                   ADD         #12,R15
    00000B58 67F6                   MOV.L       @R15+,R7
    00000B5A 6EF6                   MOV.L       @R15+,R14
    00000B5C 7FF0                   ADD         #-16,R15
    00000B5E 70DC                   ADD         #-36,R0
    00000B60 0DFE                   MOV.L       @(R0,R15),R13; v0.y
    00000B62 7028                   ADD         #40,R0
    00000B64 02FE                   MOV.L       @(R0,R15),R2; v2.y
    00000B66 68F3                   MOV         R15,R8
    00000B68 32DD                   DMULS.L     R13,R2
    00000B6A 7808                   ADD         #8,R8
    00000B6C 0B0A                   STS         MACH,R11
    00000B6E 071A                   STS         MACL,R7
    00000B70 2FB2                   MOV.L       R11,@R15
    00000B72 1F71                   MOV.L       R7,@(4,R15)
    00000B74 2F86                   MOV.L       R8,@-R15
    00000B76 4C0B                   JSR         @R12
    00000B78 E10A                   MOV         #10,R1     ; H'0000000A
    00000B7A 7F0C                   ADD         #12,R15
    00000B7C 6BF6                   MOV.L       @R15+,R11
    00000B7E 6BF6                   MOV.L       @R15+,R11
    00000B80 3EBC                   ADD         R11,R14
             raster.c        230                          dot12 = dotp2(v1, v2);
    00000B82 7FF0                   ADD         #-16,R15
    00000B84 70E0                   ADD         #-32,R0
    00000B86 0DFE                   MOV.L       @(R0,R15),R13; v1.x
    00000B88 65F3                   MOV         R15,R5
    00000B8A 34DD                   DMULS.L     R13,R4
    00000B8C 7508                   ADD         #8,R5
    00000B8E 060A                   STS         MACH,R6
    00000B90 011A                   STS         MACL,R1
    00000B92 2F62                   MOV.L       R6,@R15
    00000B94 1F11                   MOV.L       R1,@(4,R15)
    00000B96 2F56                   MOV.L       R5,@-R15
    00000B98 4C0B                   JSR         @R12
    00000B9A E10A                   MOV         #10,R1     ; H'0000000A
    00000B9C 7F0C                   ADD         #12,R15
    00000B9E 67F6                   MOV.L       @R15+,R7
    00000BA0 6DF6                   MOV.L       @R15+,R13
    00000BA2 7FF0                   ADD         #-16,R15
    00000BA4 7004                   ADD         #4,R0
    00000BA6 07FE                   MOV.L       @(R0,R15),R7; v1.y
    00000BA8 327D                   DMULS.L     R7,R2
    00000BAA 67F3                   MOV         R15,R7
    00000BAC 7708                   ADD         #8,R7
    00000BAE 060A                   STS         MACH,R6
    00000BB0 081A                   STS         MACL,R8
    00000BB2 2F62                   MOV.L       R6,@R15
    00000BB4 1F81                   MOV.L       R8,@(4,R15)
    00000BB6 2F76                   MOV.L       R7,@-R15
    00000BB8 4C0B                   JSR         @R12
    00000BBA E10A                   MOV         #10,R1     ; H'0000000A
    00000BBC 7F0C                   ADD         #12,R15
    00000BBE 62F6                   MOV.L       @R15+,R2
    00000BC0 62F6                   MOV.L       @R15+,R2
             raster.c        231    
             raster.c        232                          // find leftmost
             raster.c        233                          found = 0;
             raster.c        234                          for (xiter = bbox_left; xiter <= bbox_right; xiter += 1, dot02 += v0x_sc, dot12 += v1x_sc) {                            
    00000BC2 7044                   ADD         #68,R0
    00000BC4 08FE                   MOV.L       @(R0,R15),R8; bbox_left
    00000BC6 70F0                   ADD         #-16,R0
    00000BC8 0F96                   MOV.L       R9,@(R0,R15)
    00000BCA 7004                   ADD         #4,R0
    00000BCC 09FE                   MOV.L       @(R0,R15),R9; bbox_right
    00000BCE 3D2C                   ADD         R2,R13
    00000BD0              L90:
    00000BD0 3897                   CMP/GT      R9,R8
    00000BD2 8B01                   BF          L178
    00000BD4 A3EB                   BRA         L87
    00000BD6 0009                   NOP
    00000BD8              L178:
             raster.c        235                                  u = mulff(dot11, dot02) - mulff(dot01, dot12);
    00000BD8 7FF0                   ADD         #-16,R15
    00000BDA E043                   MOV         #67,R0     ; H'00000043
    00000BDC 4008                   SHLL2       R0
    00000BDE 01FE                   MOV.L       @(R0,R15),R1
    00000BE0 3E1D                   DMULS.L     R1,R14
    00000BE2 050A                   STS         MACH,R5
    00000BE4 2F52                   MOV.L       R5,@R15
    00000BE6 65F3                   MOV         R15,R5
    00000BE8 041A                   STS         MACL,R4
    00000BEA 7508                   ADD         #8,R5
    00000BEC 1F41                   MOV.L       R4,@(4,R15)
    00000BEE 2F56                   MOV.L       R5,@-R15
    00000BF0 DC2D                   MOV.L       L159+26,R12; __shard64
    00000BF2 4C0B                   JSR         @R12
    00000BF4 E10A                   MOV         #10,R1     ; H'0000000A
    00000BF6 7F0C                   ADD         #12,R15
    00000BF8 66F6                   MOV.L       @R15+,R6
    00000BFA 6BF6                   MOV.L       @R15+,R11
    00000BFC 7FF0                   ADD         #-16,R15
    00000BFE 70FC                   ADD         #-4,R0
    00000C00 06FE                   MOV.L       @(R0,R15),R6
    00000C02 64F3                   MOV         R15,R4
    00000C04 3D6D                   DMULS.L     R6,R13
    00000C06 7408                   ADD         #8,R4
    00000C08 070A                   STS         MACH,R7
    00000C0A 021A                   STS         MACL,R2
    00000C0C 2F72                   MOV.L       R7,@R15
    00000C0E 1F21                   MOV.L       R2,@(4,R15)
    00000C10 2F46                   MOV.L       R4,@-R15
    00000C12 4C0B                   JSR         @R12
    00000C14 E10A                   MOV         #10,R1     ; H'0000000A
    00000C16 7F0C                   ADD         #12,R15
    00000C18 62F6                   MOV.L       @R15+,R2
    00000C1A 62F6                   MOV.L       @R15+,R2
    00000C1C 3B28                   SUB         R2,R11
             raster.c        236                                  if (u < 0) continue;
    00000C1E 4B11                   CMP/PZ      R11
    00000C20 8B2C                   BF          L92
             raster.c        237    
             raster.c        238                                  v = mulff(dot00, dot12) - mulff(dot01, dot02);
    00000C22 7FF0                   ADD         #-16,R15
    00000C24 E041                   MOV         #65,R0     ; H'00000041
    00000C26 4008                   SHLL2       R0
    00000C28 04FE                   MOV.L       @(R0,R15),R4
    00000C2A 66F3                   MOV         R15,R6
    00000C2C 3D4D                   DMULS.L     R4,R13
    00000C2E 7608                   ADD         #8,R6
    00000C30 050A                   STS         MACH,R5
    00000C32 0C1A                   STS         MACL,R12
    00000C34 2F52                   MOV.L       R5,@R15
    00000C36 1FC1                   MOV.L       R12,@(4,R15)
    00000C38 2F66                   MOV.L       R6,@-R15
    00000C3A D71B                   MOV.L       L159+26,R7 ; __shard64
    00000C3C 470B                   JSR         @R7
    00000C3E E10A                   MOV         #10,R1     ; H'0000000A
    00000C40 7F0C                   ADD         #12,R15
    00000C42 61F6                   MOV.L       @R15+,R1
    00000C44 6CF6                   MOV.L       @R15+,R12
    00000C46 7FF0                   ADD         #-16,R15
    00000C48 7004                   ADD         #4,R0
    00000C4A 01FE                   MOV.L       @(R0,R15),R1
    00000C4C 65F3                   MOV         R15,R5
    00000C4E 3E1D                   DMULS.L     R1,R14
    00000C50 7508                   ADD         #8,R5
    00000C52 020A                   STS         MACH,R2
    00000C54 041A                   STS         MACL,R4
    00000C56 2F22                   MOV.L       R2,@R15
    00000C58 1F41                   MOV.L       R4,@(4,R15)
    00000C5A 2F56                   MOV.L       R5,@-R15
    00000C5C D712                   MOV.L       L159+26,R7 ; __shard64
    00000C5E 470B                   JSR         @R7
    00000C60 E10A                   MOV         #10,R1     ; H'0000000A
    00000C62 7F0C                   ADD         #12,R15
    00000C64 62F6                   MOV.L       @R15+,R2
    00000C66 62F6                   MOV.L       @R15+,R2
    00000C68 3C28                   SUB         R2,R12
             raster.c        239                                  if (v < 0) continue;
    00000C6A 4C11                   CMP/PZ      R12
    00000C6C 8B06                   BF          L92
    00000C6E E001                   MOV         #1,R0      ; H'00000001
    00000C70 4018                   SHLL8       R0
             raster.c        240    
             raster.c        241                                  if (u + v >= denom) continue;
    00000C72 62B3                   MOV         R11,R2
    00000C74 06FE                   MOV.L       @(R0,R15),R6
    00000C76 32CC                   ADD         R12,R2
    00000C78 3263                   CMP/GE      R6,R2
    00000C7A 8B17                   BF          L95
    00000C7C              L92:
    00000C7C E0EC                   MOV         #-20,R0    ; H'FFFFFFEC
    00000C7E 600C                   EXTU.B      R0,R0
    00000C80 04FE                   MOV.L       @(R0,R15),R4
    00000C82 7004                   ADD         #4,R0
    00000C84 05FE                   MOV.L       @(R0,R15),R5
    00000C86 3E4C                   ADD         R4,R14
    00000C88 3D5C                   ADD         R5,R13
    00000C8A AFA1                   BRA         L90
    00000C8C 7801                   ADD         #1,R8
    00000C8E              L159:
    00000C8E 00000002               .RES.W      1
    00000C90 <00000000>             .DATA.L     _interlace
    00000C94 <00000000>             .DATA.L     _frame
    00000C98 <00000000>             .DATA.L     __quick_odd_mvn
    00000C9C <00000000>             .DATA.L     _ivec3f
    00000CA0 <00000000>             .DATA.L     _subvv
    00000CA4 <00000000>             .DATA.L     _divvi
    00000CA8 <00000000>             .DATA.L     __shard64
    00000CAC              L95:
             raster.c        242    
             raster.c        243                                  found = 1;
             raster.c        244    
             raster.c        245                                  u = divff(u, denom);
    00000CAC E0D8                   MOV         #-40,R0    ; H'FFFFFFD8
    00000CAE 600C                   EXTU.B      R0,R0
    00000CB0 09FE                   MOV.L       @(R0,R15),R9
    00000CB2 7FF8                   ADD         #-8,R15
    00000CB4 E4AC                   MOV         #-84,R4    ; H'FFFFFFAC
    00000CB6 644C                   EXTU.B      R4,R4
    00000CB8 67F3                   MOV         R15,R7
    00000CBA 374C                   ADD         R4,R7
    00000CBC 5571                   MOV.L       @(4,R7),R5
    00000CBE 6472                   MOV.L       @R7,R4
    00000CC0 2F56                   MOV.L       R5,@-R15
    00000CC2 2F46                   MOV.L       R4,@-R15
    00000CC4 7FF0                   ADD         #-16,R15
    00000CC6 62B3                   MOV         R11,R2
    00000CC8 4200                   SHLL        R2
    00000CCA 322A                   SUBC        R2,R2
    00000CCC 1FB1                   MOV.L       R11,@(4,R15)
    00000CCE 6BF3                   MOV         R15,R11
    00000CD0 7B08                   ADD         #8,R11
    00000CD2 2F22                   MOV.L       R2,@R15
    00000CD4 2FB6                   MOV.L       R11,@-R15
    00000CD6 DDAD                   MOV.L       L160+2,R13 ; __shlld64
    00000CD8 4D0B                   JSR         @R13
    00000CDA E10A                   MOV         #10,R1     ; H'0000000A
    00000CDC 7F0C                   ADD         #12,R15
    00000CDE 6EF3                   MOV         R15,R14
    00000CE0 7E10                   ADD         #16,R14
    00000CE2 2FE6                   MOV.L       R14,@-R15
    00000CE4 DEAA                   MOV.L       L160+6,R14 ; __div64s
    00000CE6 4E0B                   JSR         @R14
    00000CE8 0009                   NOP
    00000CEA 7F14                   ADD         #20,R15
    00000CEC 61F6                   MOV.L       @R15+,R1
    00000CEE 64F6                   MOV.L       @R15+,R4
             raster.c        246                                  v = divff(v, denom);                    
    00000CF0 7FF8                   ADD         #-8,R15
    00000CF2 E7AC                   MOV         #-84,R7    ; H'FFFFFFAC
    00000CF4 677C                   EXTU.B      R7,R7
    00000CF6 61F3                   MOV         R15,R1
    00000CF8 317C                   ADD         R7,R1
    00000CFA 5B11                   MOV.L       @(4,R1),R11
    00000CFC 6712                   MOV.L       @R1,R7
    00000CFE 2FB6                   MOV.L       R11,@-R15
    00000D00 2F76                   MOV.L       R7,@-R15
    00000D02 7FF0                   ADD         #-16,R15
    00000D04 62C3                   MOV         R12,R2
    00000D06 4200                   SHLL        R2
    00000D08 322A                   SUBC        R2,R2
    00000D0A 65F3                   MOV         R15,R5
    00000D0C 7508                   ADD         #8,R5
    00000D0E 2F22                   MOV.L       R2,@R15
    00000D10 1FC1                   MOV.L       R12,@(4,R15)
    00000D12 2F56                   MOV.L       R5,@-R15
    00000D14 4D0B                   JSR         @R13
    00000D16 E10A                   MOV         #10,R1     ; H'0000000A
    00000D18 7F0C                   ADD         #12,R15
    00000D1A 66F3                   MOV         R15,R6
    00000D1C 7610                   ADD         #16,R6
    00000D1E 4E0B                   JSR         @R14
    00000D20 2F66                   MOV.L       R6,@-R15
    00000D22 7F14                   ADD         #20,R15
    00000D24 67F6                   MOV.L       @R15+,R7
    00000D26 62F6                   MOV.L       @R15+,R2
             raster.c        247    
             raster.c        248                                  // interpolation
             raster.c        249                                  ozp = mulff(ozb, v) + mulff(ozc, u) + mulff(oza, int2f(1) - u - v);
    00000D28 7FF0                   ADD         #-16,R15
    00000D2A 7040                   ADD         #64,R0
    00000D2C 0DFE                   MOV.L       @(R0,R15),R13
    00000D2E 6BF3                   MOV         R15,R11
    00000D30 32DD                   DMULS.L     R13,R2
    00000D32 7B08                   ADD         #8,R11
    00000D34 070A                   STS         MACH,R7
    00000D36 0C1A                   STS         MACL,R12
    00000D38 2F72                   MOV.L       R7,@R15
    00000D3A 1FC1                   MOV.L       R12,@(4,R15)
    00000D3C 2FB6                   MOV.L       R11,@-R15
    00000D3E DD95                   MOV.L       L160+10,R13; __shard64
    00000D40 4D0B                   JSR         @R13
    00000D42 E10A                   MOV         #10,R1     ; H'0000000A
    00000D44 7F0C                   ADD         #12,R15
    00000D46 6EF6                   MOV.L       @R15+,R14
    00000D48 6CF6                   MOV.L       @R15+,R12
    00000D4A 7FF0                   ADD         #-16,R15
    00000D4C 7004                   ADD         #4,R0
    00000D4E 0BFE                   MOV.L       @(R0,R15),R11
    00000D50 61F3                   MOV         R15,R1
    00000D52 34BD                   DMULS.L     R11,R4
    00000D54 7108                   ADD         #8,R1
    00000D56 050A                   STS         MACH,R5
    00000D58 0E1A                   STS         MACL,R14
    00000D5A 2F52                   MOV.L       R5,@R15
    00000D5C 1FE1                   MOV.L       R14,@(4,R15)
    00000D5E 2F16                   MOV.L       R1,@-R15
    00000D60 4D0B                   JSR         @R13
    00000D62 E10A                   MOV         #10,R1     ; H'0000000A
    00000D64 7F0C                   ADD         #12,R15
    00000D66 66F6                   MOV.L       @R15+,R6
    00000D68 66F6                   MOV.L       @R15+,R6
    00000D6A 3C6C                   ADD         R6,R12
    00000D6C 7FF0                   ADD         #-16,R15
    00000D6E E704                   MOV         #4,R7      ; H'00000004
    00000D70 4718                   SHLL8       R7
    00000D72 701C                   ADD         #28,R0
    00000D74 0F76                   MOV.L       R7,@(R0,R15)
    00000D76 70DC                   ADD         #-36,R0
    00000D78 3748                   SUB         R4,R7
    00000D7A 0BFE                   MOV.L       @(R0,R15),R11
    00000D7C 3728                   SUB         R2,R7
    00000D7E 3B7D                   DMULS.L     R7,R11
    00000D80 0E1A                   STS         MACL,R14
    00000D82 1FE1                   MOV.L       R14,@(4,R15)
    00000D84 6EF3                   MOV         R15,R14
    00000D86 0B0A                   STS         MACH,R11
    00000D88 7E08                   ADD         #8,R14
    00000D8A 2FB2                   MOV.L       R11,@R15
    00000D8C 2FE6                   MOV.L       R14,@-R15
    00000D8E 4D0B                   JSR         @R13
    00000D90 E10A                   MOV         #10,R1     ; H'0000000A
    00000D92 7F0C                   ADD         #12,R15
    00000D94 61F6                   MOV.L       @R15+,R1
    00000D96 61F6                   MOV.L       @R15+,R1
    00000D98 7010                   ADD         #16,R0
    00000D9A 3C1C                   ADD         R1,R12
    00000D9C 0FC6                   MOV.L       R12,@(R0,R15)
             raster.c        250                                  uzp = mulff(uzc, u);
    00000D9E 7FF0                   ADD         #-16,R15
    00000DA0 06FE                   MOV.L       @(R0,R15),R6
    00000DA2 6BF3                   MOV         R15,R11
    00000DA4 346D                   DMULS.L     R6,R4
    00000DA6 7B08                   ADD         #8,R11
    00000DA8 070A                   STS         MACH,R7
    00000DAA 041A                   STS         MACL,R4
    00000DAC 2F72                   MOV.L       R7,@R15
    00000DAE 1F41                   MOV.L       R4,@(4,R15)
    00000DB0 2FB6                   MOV.L       R11,@-R15
    00000DB2 4D0B                   JSR         @R13
    00000DB4 E10A                   MOV         #10,R1     ; H'0000000A
    00000DB6 7F0C                   ADD         #12,R15
    00000DB8 6CF6                   MOV.L       @R15+,R12
    00000DBA 700C                   ADD         #12,R0
    00000DBC 6CF2                   MOV.L       @R15,R12
    00000DBE 0FC6                   MOV.L       R12,@(R0,R15)
    00000DC0 7FF4                   ADD         #-12,R15
             raster.c        251                                  vzp = mulff(vzb, v);
    00000DC2 70F0                   ADD         #-16,R0
    00000DC4 0EFE                   MOV.L       @(R0,R15),R14
    00000DC6 64F3                   MOV         R15,R4
    00000DC8 32ED                   DMULS.L     R14,R2
    00000DCA 7408                   ADD         #8,R4
    00000DCC 010A                   STS         MACH,R1
    00000DCE 051A                   STS         MACL,R5
    00000DD0 2F12                   MOV.L       R1,@R15
    00000DD2 1F51                   MOV.L       R5,@(4,R15)
    00000DD4 2F46                   MOV.L       R4,@-R15
    00000DD6 4D0B                   JSR         @R13
    00000DD8 E10A                   MOV         #10,R1     ; H'0000000A
    00000DDA 7F0C                   ADD         #12,R15
    00000DDC 65F6                   MOV.L       @R15+,R5
    00000DDE 7014                   ADD         #20,R0
    00000DE0 65F2                   MOV.L       @R15,R5
    00000DE2 0F56                   MOV.L       R5,@(R0,R15)
    00000DE4 7FEC                   ADD         #-20,R15
    00000DE6 E768                   MOV         #104,R7    ; H'00000068
    00000DE8 62F3                   MOV         R15,R2
    00000DEA DB6B                   MOV.L       L160+14,R11; __quick_odd_mvn
             raster.c        252    
             raster.c        253                                  minx = xiter;
             raster.c        254                                  break;
             raster.c        255                          }       
             raster.c        256                          if (!found) continue;
             raster.c        257    
             raster.c        258                          v2 = divvi(subvv(ivec3f(int2f(bbox_right), int2f(yiter), 0), a), OF_SC);
    00000DEC 61F3                   MOV         R15,R1
    00000DEE 327C                   ADD         R7,R2
    00000DF0 4B0B                   JSR         @R11
    00000DF2 E00C                   MOV         #12,R0     ; H'0000000C
    00000DF4 7FF4                   ADD         #-12,R15
    00000DF6 67F3                   MOV         R15,R7
    00000DF8 2F76                   MOV.L       R7,@-R15
    00000DFA E052                   MOV         #82,R0     ; H'00000052
    00000DFC 4008                   SHLL2       R0
    00000DFE DC67                   MOV.L       L160+18,R12; _ivec3f
    00000E00 04FE                   MOV.L       @(R0,R15),R4
    00000E02 E600                   MOV         #0,R6      ; H'00000000
    00000E04 4C0B                   JSR         @R12
    00000E06 6593                   MOV         R9,R5
    00000E08 7F04                   ADD         #4,R15
    00000E0A 69F3                   MOV         R15,R9
    00000E0C 7918                   ADD         #24,R9
    00000E0E 2F96                   MOV.L       R9,@-R15
    00000E10 D963                   MOV.L       L160+22,R9 ; _subvv
    00000E12 490B                   JSR         @R9
    00000E14 0009                   NOP
    00000E16 7F1C                   ADD         #28,R15
    00000E18 E9B8                   MOV         #-72,R9    ; H'FFFFFFB8
    00000E1A 699C                   EXTU.B      R9,R9
    00000E1C 6BF3                   MOV         R15,R11
    00000E1E 3B9C                   ADD         R9,R11
    00000E20 2FB6                   MOV.L       R11,@-R15
    00000E22 DE60                   MOV.L       L160+26,R14; _divvi
    00000E24 4E0B                   JSR         @R14
    00000E26 E408                   MOV         #8,R4      ; H'00000008
             raster.c        259                          dot02 = dotp2(v0, v2);
    00000E28 E094                   MOV         #-108,R0   ; H'FFFFFF94
    00000E2A 600C                   EXTU.B      R0,R0
    00000E2C 0EFE                   MOV.L       @(R0,R15),R14; v0.x
    00000E2E 7028                   ADD         #40,R0
    00000E30 02FE                   MOV.L       @(R0,R15),R2; v2.x
    00000E32 32ED                   DMULS.L     R14,R2
    00000E34 6EF3                   MOV         R15,R14
    00000E36 7E08                   ADD         #8,R14
    00000E38 0C0A                   STS         MACH,R12
    00000E3A 041A                   STS         MACL,R4
    00000E3C 2FC2                   MOV.L       R12,@R15
    00000E3E 1F41                   MOV.L       R4,@(4,R15)
    00000E40 2FE6                   MOV.L       R14,@-R15
    00000E42 4D0B                   JSR         @R13
    00000E44 E10A                   MOV         #10,R1     ; H'0000000A
    00000E46 7F0C                   ADD         #12,R15
    00000E48 67F6                   MOV.L       @R15+,R7
    00000E4A 65F6                   MOV.L       @R15+,R5
    00000E4C 7FF0                   ADD         #-16,R15
    00000E4E 70DC                   ADD         #-36,R0
    00000E50 0CFE                   MOV.L       @(R0,R15),R12; v0.y
    00000E52 7028                   ADD         #40,R0
    00000E54 07FE                   MOV.L       @(R0,R15),R7; v2.y
    00000E56 6BF3                   MOV         R15,R11
    00000E58 37CD                   DMULS.L     R12,R7
    00000E5A 7B08                   ADD         #8,R11
    00000E5C 090A                   STS         MACH,R9
    00000E5E 061A                   STS         MACL,R6
    00000E60 2F92                   MOV.L       R9,@R15
    00000E62 1F61                   MOV.L       R6,@(4,R15)
    00000E64 2FB6                   MOV.L       R11,@-R15
    00000E66 4D0B                   JSR         @R13
    00000E68 E10A                   MOV         #10,R1     ; H'0000000A
    00000E6A 7F0C                   ADD         #12,R15
    00000E6C 6CF6                   MOV.L       @R15+,R12
    00000E6E 6CF6                   MOV.L       @R15+,R12
    00000E70 35CC                   ADD         R12,R5
    00000E72 6B53                   MOV         R5,R11
             raster.c        260                          dot12 = dotp2(v1, v2);
    00000E74 7FF0                   ADD         #-16,R15
    00000E76 70E0                   ADD         #-32,R0
    00000E78 05FE                   MOV.L       @(R0,R15),R5; v1.x
    00000E7A 325D                   DMULS.L     R5,R2
    00000E7C 090A                   STS         MACH,R9
    00000E7E 2F92                   MOV.L       R9,@R15
    00000E80 69F3                   MOV         R15,R9
    00000E82 071A                   STS         MACL,R7
    00000E84 7908                   ADD         #8,R9
    00000E86 1F71                   MOV.L       R7,@(4,R15)
    00000E88 2F96                   MOV.L       R9,@-R15
    00000E8A 4D0B                   JSR         @R13
    00000E8C E10A                   MOV         #10,R1     ; H'0000000A
    00000E8E 7F0C                   ADD         #12,R15
    00000E90 6CF6                   MOV.L       @R15+,R12
    00000E92 65F6                   MOV.L       @R15+,R5
    00000E94 7FF0                   ADD         #-16,R15
    00000E96 7004                   ADD         #4,R0
    00000E98 0CFE                   MOV.L       @(R0,R15),R12; v1.y
    00000E9A 701C                   ADD         #28,R0
    00000E9C 06FE                   MOV.L       @(R0,R15),R6; v2.y
    00000E9E 69F3                   MOV         R15,R9
    00000EA0 36CD                   DMULS.L     R12,R6
    00000EA2 7908                   ADD         #8,R9
    00000EA4 040A                   STS         MACH,R4
    00000EA6 061A                   STS         MACL,R6
    00000EA8 2F42                   MOV.L       R4,@R15
    00000EAA 1F61                   MOV.L       R6,@(4,R15)
    00000EAC 2F96                   MOV.L       R9,@-R15
    00000EAE 4D0B                   JSR         @R13
    00000EB0 E10A                   MOV         #10,R1     ; H'0000000A
    00000EB2 7F0C                   ADD         #12,R15
    00000EB4 6DF6                   MOV.L       @R15+,R13
    00000EB6 6DF6                   MOV.L       @R15+,R13
             raster.c        261    
             raster.c        262                          // find rightmost, same stuff but different
             raster.c        263                          found = 0;
             raster.c        264                          for(xiter = bbox_right; xiter >= bbox_left; xiter -= 1, dot02 -= v0x_sc, dot12 -= v1x_sc) {
    00000EB8 701C                   ADD         #28,R0
    00000EBA 09FE                   MOV.L       @(R0,R15),R9; bbox_right
    00000EBC 70EC                   ADD         #-20,R0
    00000EBE 0F86                   MOV.L       R8,@(R0,R15)
    00000EC0 7004                   ADD         #4,R0
    00000EC2 35DC                   ADD         R13,R5
    00000EC4 0FA6                   MOV.L       R10,@(R0,R15)
    00000EC6 7004                   ADD         #4,R0
    00000EC8 6C53                   MOV         R5,R12
    00000ECA 08FE                   MOV.L       @(R0,R15),R8
    00000ECC 7004                   ADD         #4,R0
    00000ECE 0AFE                   MOV.L       @(R0,R15),R10
    00000ED0              L96:
    00000ED0 E0E8                   MOV         #-24,R0    ; H'FFFFFFE8
    00000ED2 600C                   EXTU.B      R0,R0
    00000ED4 02FE                   MOV.L       @(R0,R15),R2; bbox_left
    00000ED6 3923                   CMP/GE      R2,R9
    00000ED8 8901                   BT          L179
    00000EDA A265                   BRA         L98
    00000EDC 0009                   NOP
    00000EDE              L179:
             raster.c        265                                  u = mulff(dot11, dot02) - mulff(dot01, dot12);
    00000EDE 7FF0                   ADD         #-16,R15
    00000EE0 E043                   MOV         #67,R0     ; H'00000043
    00000EE2 4008                   SHLL2       R0
    00000EE4 0DFE                   MOV.L       @(R0,R15),R13
    00000EE6 61F3                   MOV         R15,R1
    00000EE8 3BDD                   DMULS.L     R13,R11
    00000EEA 7108                   ADD         #8,R1
    00000EEC 0E0A                   STS         MACH,R14
    00000EEE 021A                   STS         MACL,R2
    00000EF0 2FE2                   MOV.L       R14,@R15
    00000EF2 1F21                   MOV.L       R2,@(4,R15)
    00000EF4 2F16                   MOV.L       R1,@-R15
    00000EF6 DE27                   MOV.L       L160+10,R14; __shard64
    00000EF8 4E0B                   JSR         @R14
    00000EFA E10A                   MOV         #10,R1     ; H'0000000A
    00000EFC 7F0C                   ADD         #12,R15
    00000EFE 64F6                   MOV.L       @R15+,R4
    00000F00 6DF6                   MOV.L       @R15+,R13
    00000F02 7FF0                   ADD         #-16,R15
    00000F04 70FC                   ADD         #-4,R0
    00000F06 04FE                   MOV.L       @(R0,R15),R4
    00000F08 67F3                   MOV         R15,R7
    00000F0A 3C4D                   DMULS.L     R4,R12
    00000F0C 7708                   ADD         #8,R7
    00000F0E 050A                   STS         MACH,R5
    00000F10 061A                   STS         MACL,R6
    00000F12 2F52                   MOV.L       R5,@R15
    00000F14 1F61                   MOV.L       R6,@(4,R15)
    00000F16 2F76                   MOV.L       R7,@-R15
    00000F18 4E0B                   JSR         @R14
    00000F1A E10A                   MOV         #10,R1     ; H'0000000A
    00000F1C 7F0C                   ADD         #12,R15
    00000F1E 62F6                   MOV.L       @R15+,R2
    00000F20 62F6                   MOV.L       @R15+,R2
    00000F22 3D28                   SUB         R2,R13
             raster.c        266                                  if (u < 0) continue;
    00000F24 4D11                   CMP/PZ      R13
    00000F26 8B2C                   BF          L99
             raster.c        267                          
             raster.c        268                                  v = mulff(dot00, dot12) - mulff(dot01, dot02);  
    00000F28 7FF0                   ADD         #-16,R15
    00000F2A E041                   MOV         #65,R0     ; H'00000041
    00000F2C 4008                   SHLL2       R0
    00000F2E 04FE                   MOV.L       @(R0,R15),R4
    00000F30 66F3                   MOV         R15,R6
    00000F32 3C4D                   DMULS.L     R4,R12
    00000F34 7608                   ADD         #8,R6
    00000F36 0E0A                   STS         MACH,R14
    00000F38 051A                   STS         MACL,R5
    00000F3A 2FE2                   MOV.L       R14,@R15
    00000F3C 1F51                   MOV.L       R5,@(4,R15)
    00000F3E 2F66                   MOV.L       R6,@-R15
    00000F40 D714                   MOV.L       L160+10,R7 ; __shard64
    00000F42 470B                   JSR         @R7
    00000F44 E10A                   MOV         #10,R1     ; H'0000000A
    00000F46 7F0C                   ADD         #12,R15
    00000F48 61F6                   MOV.L       @R15+,R1
    00000F4A 6EF6                   MOV.L       @R15+,R14
    00000F4C 7FF0                   ADD         #-16,R15
    00000F4E 7004                   ADD         #4,R0
    00000F50 01FE                   MOV.L       @(R0,R15),R1
    00000F52 65F3                   MOV         R15,R5
    00000F54 3B1D                   DMULS.L     R1,R11
    00000F56 7508                   ADD         #8,R5
    00000F58 020A                   STS         MACH,R2
    00000F5A 041A                   STS         MACL,R4
    00000F5C 2F22                   MOV.L       R2,@R15
    00000F5E 1F41                   MOV.L       R4,@(4,R15)
    00000F60 2F56                   MOV.L       R5,@-R15
    00000F62 D70C                   MOV.L       L160+10,R7 ; __shard64
    00000F64 470B                   JSR         @R7
    00000F66 E10A                   MOV         #10,R1     ; H'0000000A
    00000F68 7F0C                   ADD         #12,R15
    00000F6A 62F6                   MOV.L       @R15+,R2
    00000F6C 62F6                   MOV.L       @R15+,R2
    00000F6E 3E28                   SUB         R2,R14
             raster.c        269                                  if (v < 0) continue;
    00000F70 4E11                   CMP/PZ      R14
    00000F72 8B06                   BF          L99
    00000F74 E001                   MOV         #1,R0      ; H'00000001
    00000F76 4018                   SHLL8       R0
             raster.c        270                                  
             raster.c        271                                  if (u + v >= denom) continue;
    00000F78 62D3                   MOV         R13,R2
    00000F7A 06FE                   MOV.L       @(R0,R15),R6
    00000F7C 32EC                   ADD         R14,R2
    00000F7E 3263                   CMP/GE      R6,R2
    00000F80 8B12                   BF          L102
    00000F82              L99:
    00000F82 79FF                   ADD         #-1,R9
    00000F84 3BAC                   ADD         R10,R11
    00000F86 AFA3                   BRA         L96
    00000F88 3C8C                   ADD         R8,R12
    00000F8A              L160:
    00000F8A 00000002               .RES.W      1
    00000F8C <00000000>             .DATA.L     __shlld64
    00000F90 <00000000>             .DATA.L     __div64s
    00000F94 <00000000>             .DATA.L     __shard64
    00000F98 <00000000>             .DATA.L     __quick_odd_mvn
    00000F9C <00000000>             .DATA.L     _ivec3f
    00000FA0 <00000000>             .DATA.L     _subvv
    00000FA4 <00000000>             .DATA.L     _divvi
    00000FA8              L102:
             raster.c        272    
             raster.c        273                                  found = 1;
             raster.c        274                          
             raster.c        275                                  u = divff(u, denom);
    00000FA8 E0CC                   MOV         #-52,R0    ; H'FFFFFFCC
    00000FAA 600C                   EXTU.B      R0,R0
    00000FAC 0AFE                   MOV.L       @(R0,R15),R10
    00000FAE 70FC                   ADD         #-4,R0
    00000FB0 08FE                   MOV.L       @(R0,R15),R8
    00000FB2 7FF8                   ADD         #-8,R15
    00000FB4 E5AC                   MOV         #-84,R5    ; H'FFFFFFAC
    00000FB6 655C                   EXTU.B      R5,R5
    00000FB8 64F3                   MOV         R15,R4
    00000FBA 345C                   ADD         R5,R4
    00000FBC 5741                   MOV.L       @(4,R4),R7
    00000FBE 6542                   MOV.L       @R4,R5
    00000FC0 2F76                   MOV.L       R7,@-R15
    00000FC2 2F56                   MOV.L       R5,@-R15
    00000FC4 7FF0                   ADD         #-16,R15
    00000FC6 62D3                   MOV         R13,R2
    00000FC8 4200                   SHLL        R2
    00000FCA 322A                   SUBC        R2,R2
    00000FCC 65F3                   MOV         R15,R5
    00000FCE 7508                   ADD         #8,R5
    00000FD0 2F22                   MOV.L       R2,@R15
    00000FD2 1FD1                   MOV.L       R13,@(4,R15)
    00000FD4 2F56                   MOV.L       R5,@-R15
    00000FD6 DCCB                   MOV.L       L162,R12   ; __shlld64
    00000FD8 4C0B                   JSR         @R12
    00000FDA E10A                   MOV         #10,R1     ; H'0000000A
    00000FDC 7F0C                   ADD         #12,R15
    00000FDE 66F3                   MOV         R15,R6
    00000FE0 7610                   ADD         #16,R6
    00000FE2 DDC9                   MOV.L       L162+4,R13 ; __div64s
    00000FE4 4D0B                   JSR         @R13
    00000FE6 2F66                   MOV.L       R6,@-R15
    00000FE8 7F14                   ADD         #20,R15
    00000FEA 67F6                   MOV.L       @R15+,R7
    00000FEC 64F6                   MOV.L       @R15+,R4
             raster.c        276                                  v = divff(v, denom);
    00000FEE 7FF8                   ADD         #-8,R15
    00000FF0 EBAC                   MOV         #-84,R11   ; H'FFFFFFAC
    00000FF2 6BBC                   EXTU.B      R11,R11
    00000FF4 67F3                   MOV         R15,R7
    00000FF6 37BC                   ADD         R11,R7
    00000FF8 5271                   MOV.L       @(4,R7),R2
    00000FFA 6572                   MOV.L       @R7,R5
    00000FFC 2F26                   MOV.L       R2,@-R15
    00000FFE 2F56                   MOV.L       R5,@-R15
    00001000 7FF0                   ADD         #-16,R15
    00001002 62E3                   MOV         R14,R2
    00001004 4200                   SHLL        R2
    00001006 322A                   SUBC        R2,R2
    00001008 6BF3                   MOV         R15,R11
    0000100A 7B08                   ADD         #8,R11
    0000100C 2F22                   MOV.L       R2,@R15
    0000100E 1FE1                   MOV.L       R14,@(4,R15)
    00001010 2FB6                   MOV.L       R11,@-R15
    00001012 4C0B                   JSR         @R12
    00001014 E10A                   MOV         #10,R1     ; H'0000000A
    00001016 7F0C                   ADD         #12,R15
    00001018 6CF3                   MOV         R15,R12
    0000101A 7C10                   ADD         #16,R12
    0000101C 4D0B                   JSR         @R13
    0000101E 2FC6                   MOV.L       R12,@-R15
    00001020 7F14                   ADD         #20,R15
    00001022 6DF6                   MOV.L       @R15+,R13
    00001024 65F6                   MOV.L       @R15+,R5
             raster.c        277    
             raster.c        278                                  ozq = mulff(ozb, v) + mulff(ozc, u) + mulff(oza, int2f(1) - u - v);
    00001026 7FF0                   ADD         #-16,R15
    00001028 7050                   ADD         #80,R0
    0000102A 0EFE                   MOV.L       @(R0,R15),R14
    0000102C 35ED                   DMULS.L     R14,R5
    0000102E 6EF3                   MOV         R15,R14
    00001030 7E08                   ADD         #8,R14
    00001032 070A                   STS         MACH,R7
    00001034 0D1A                   STS         MACL,R13
    00001036 2F72                   MOV.L       R7,@R15
    00001038 1FD1                   MOV.L       R13,@(4,R15)
    0000103A 2FE6                   MOV.L       R14,@-R15
    0000103C DCB3                   MOV.L       L162+8,R12 ; __shard64
    0000103E 4C0B                   JSR         @R12
    00001040 E10A                   MOV         #10,R1     ; H'0000000A
    00001042 7F0C                   ADD         #12,R15
    00001044 61F6                   MOV.L       @R15+,R1
    00001046 6EF6                   MOV.L       @R15+,R14
    00001048 7FF0                   ADD         #-16,R15
    0000104A 7004                   ADD         #4,R0
    0000104C 0BFE                   MOV.L       @(R0,R15),R11
    0000104E 66F3                   MOV         R15,R6
    00001050 34BD                   DMULS.L     R11,R4
    00001052 7608                   ADD         #8,R6
    00001054 0B0A                   STS         MACH,R11
    00001056 011A                   STS         MACL,R1
    00001058 2FB2                   MOV.L       R11,@R15
    0000105A 1F11                   MOV.L       R1,@(4,R15)
    0000105C 2F66                   MOV.L       R6,@-R15
    0000105E 4C0B                   JSR         @R12
    00001060 E10A                   MOV         #10,R1     ; H'0000000A
    00001062 7F0C                   ADD         #12,R15
    00001064 67F6                   MOV.L       @R15+,R7
    00001066 67F6                   MOV.L       @R15+,R7
    00001068 3E7C                   ADD         R7,R14
    0000106A 7FF0                   ADD         #-16,R15
    0000106C E645                   MOV         #69,R6     ; H'00000045
    0000106E 4608                   SHLL2       R6
    00001070 36FC                   ADD         R15,R6
    00001072 5D69                   MOV.L       @(36,R6),R13
    00001074 6B62                   MOV.L       @R6,R11
    00001076 3D48                   SUB         R4,R13
    00001078 3D58                   SUB         R5,R13
    0000107A 3BDD                   DMULS.L     R13,R11
    0000107C 61F3                   MOV         R15,R1
    0000107E 7108                   ADD         #8,R1
    00001080 16D9                   MOV.L       R13,@(36,R6)
    00001082 0D0A                   STS         MACH,R13
    00001084 061A                   STS         MACL,R6
    00001086 2FD2                   MOV.L       R13,@R15
    00001088 1F61                   MOV.L       R6,@(4,R15)
    0000108A 2F16                   MOV.L       R1,@-R15
    0000108C 4C0B                   JSR         @R12
    0000108E E10A                   MOV         #10,R1     ; H'0000000A
    00001090 7F0C                   ADD         #12,R15
    00001092 67F6                   MOV.L       @R15+,R7
    00001094 67F6                   MOV.L       @R15+,R7
    00001096 3E7C                   ADD         R7,R14
             raster.c        279                                  uzq = mulff(uzc, u);
    00001098 7FF0                   ADD         #-16,R15
    0000109A 7008                   ADD         #8,R0
    0000109C 0BFE                   MOV.L       @(R0,R15),R11
    0000109E 34BD                   DMULS.L     R11,R4
    000010A0 040A                   STS         MACH,R4
    000010A2 2F42                   MOV.L       R4,@R15
    000010A4 64F3                   MOV         R15,R4
    000010A6 0D1A                   STS         MACL,R13
    000010A8 7408                   ADD         #8,R4
    000010AA 1FD1                   MOV.L       R13,@(4,R15)
    000010AC 2F46                   MOV.L       R4,@-R15
    000010AE 4C0B                   JSR         @R12
    000010B0 E10A                   MOV         #10,R1     ; H'0000000A
    000010B2 7F0C                   ADD         #12,R15
    000010B4 67F6                   MOV.L       @R15+,R7
    000010B6 6DF6                   MOV.L       @R15+,R13
             raster.c        280                                  vzq = mulff(vzb, v);
    000010B8 7FF0                   ADD         #-16,R15
    000010BA 70FC                   ADD         #-4,R0
    000010BC 07FE                   MOV.L       @(R0,R15),R7
    000010BE 64F3                   MOV         R15,R4
    000010C0 357D                   DMULS.L     R7,R5
    000010C2 7408                   ADD         #8,R4
    000010C4 060A                   STS         MACH,R6
    000010C6 0B1A                   STS         MACL,R11
    000010C8 2F62                   MOV.L       R6,@R15
    000010CA 1FB1                   MOV.L       R11,@(4,R15)
    000010CC 2F46                   MOV.L       R4,@-R15
    000010CE 4C0B                   JSR         @R12
    000010D0 E10A                   MOV         #10,R1     ; H'0000000A
    000010D2 7F0C                   ADD         #12,R15
    000010D4 62F6                   MOV.L       @R15+,R2
    000010D6 6CF6                   MOV.L       @R15+,R12
             raster.c        281    
             raster.c        282                                  maxx = xiter;
    000010D8 7014                   ADD         #20,R0
    000010DA 0F96                   MOV.L       R9,@(R0,R15); maxx
             raster.c        283                                  break;
             raster.c        284                          }
             raster.c        285                          if (!found) continue;
             raster.c        286    
             raster.c        287                          if ((maxx-minx) > 1023) continue;  // shouldn't get that big, rudimentary near-plane cull
    000010DC 3988                   SUB         R8,R9
    000010DE 968C                   MOV.W       L161,R6    ; H'03FF
    000010E0 3967                   CMP/GT      R6,R9
    000010E2 8B01                   BF          L180
    000010E4 A163                   BRA         L87
    000010E6 0009                   NOP
    000010E8              L180:
             raster.c        288                          if ((maxx-minx) <= 0) continue; // probably a good idea to not render
    000010E8 05FE                   MOV.L       @(R0,R15),R5; maxx
    000010EA 3588                   SUB         R8,R5
    000010EC 4515                   CMP/PL      R5
    000010EE 8901                   BT          L181
    000010F0 A15D                   BRA         L87
    000010F2 0009                   NOP
    000010F4              L181:
             raster.c        289    
             raster.c        290                          diff = int2f(maxx-minx);
             raster.c        291    
             raster.c        292                          ozstep = divff(ozq-ozp, diff);
    000010F4 4518                   SHLL8       R5
    000010F6 4508                   SHLL2       R5
    000010F8 6253                   MOV         R5,R2
    000010FA 4200                   SHLL        R2
    000010FC 366A                   SUBC        R6,R6
    000010FE E9B8                   MOV         #-72,R9    ; H'FFFFFFB8
    00001100 699C                   EXTU.B      R9,R9
    00001102 67F3                   MOV         R15,R7
    00001104 379C                   ADD         R9,R7
    00001106 2762                   MOV.L       R6,@R7
    00001108 1751                   MOV.L       R5,@(4,R7)
    0000110A 7FF8                   ADD         #-8,R15
    0000110C E1C0                   MOV         #-64,R1    ; H'FFFFFFC0
    0000110E 611C                   EXTU.B      R1,R1
    00001110 69F3                   MOV         R15,R9
    00001112 391C                   ADD         R1,R9
    00001114 5291                   MOV.L       @(4,R9),R2
    00001116 6B92                   MOV.L       @R9,R11
    00001118 2F26                   MOV.L       R2,@-R15
    0000111A 2FB6                   MOV.L       R11,@-R15
    0000111C 7FF0                   ADD         #-16,R15
    0000111E E051                   MOV         #81,R0     ; H'00000051
    00001120 4008                   SHLL2       R0
    00001122 0BFE                   MOV.L       @(R0,R15),R11
    00001124 3EB8                   SUB         R11,R14
    00001126 62E3                   MOV         R14,R2
    00001128 4200                   SHLL        R2
    0000112A 322A                   SUBC        R2,R2
    0000112C 1FE1                   MOV.L       R14,@(4,R15)
    0000112E 6EF3                   MOV         R15,R14
    00001130 7E08                   ADD         #8,R14
    00001132 2F22                   MOV.L       R2,@R15
    00001134 2FE6                   MOV.L       R14,@-R15
    00001136 D973                   MOV.L       L162,R9    ; __shlld64
    00001138 490B                   JSR         @R9
    0000113A E10A                   MOV         #10,R1     ; H'0000000A
    0000113C 7F0C                   ADD         #12,R15
    0000113E 61F3                   MOV         R15,R1
    00001140 7110                   ADD         #16,R1
    00001142 DE71                   MOV.L       L162+4,R14 ; __div64s
    00001144 4E0B                   JSR         @R14
    00001146 2F16                   MOV.L       R1,@-R15
    00001148 7F14                   ADD         #20,R15
    0000114A 64F6                   MOV.L       @R15+,R4
    0000114C 70F8                   ADD         #-8,R0
    0000114E 64F2                   MOV.L       @R15,R4
    00001150 0F46                   MOV.L       R4,@(R0,R15)
    00001152 7FFC                   ADD         #-4,R15
             raster.c        293                          uzstep = divff(uzq-uzp, diff);
    00001154 E4C0                   MOV         #-64,R4    ; H'FFFFFFC0
    00001156 644C                   EXTU.B      R4,R4
    00001158 67F3                   MOV         R15,R7
    0000115A 374C                   ADD         R4,R7
    0000115C 5571                   MOV.L       @(4,R7),R5
    0000115E 6472                   MOV.L       @R7,R4
    00001160 2F56                   MOV.L       R5,@-R15
    00001162 2F46                   MOV.L       R4,@-R15
    00001164 7FF0                   ADD         #-16,R15
    00001166 7010                   ADD         #16,R0
    00001168 01FE                   MOV.L       @(R0,R15),R1
    0000116A 3D18                   SUB         R1,R13
    0000116C 62D3                   MOV         R13,R2
    0000116E 4200                   SHLL        R2
    00001170 322A                   SUBC        R2,R2
    00001172 64F3                   MOV         R15,R4
    00001174 7408                   ADD         #8,R4
    00001176 2F22                   MOV.L       R2,@R15
    00001178 1FD1                   MOV.L       R13,@(4,R15)
    0000117A 2F46                   MOV.L       R4,@-R15
    0000117C 490B                   JSR         @R9
    0000117E E10A                   MOV         #10,R1     ; H'0000000A
    00001180 7F0C                   ADD         #12,R15
    00001182 65F3                   MOV         R15,R5
    00001184 7510                   ADD         #16,R5
    00001186 4E0B                   JSR         @R14
    00001188 2F56                   MOV.L       R5,@-R15
    0000118A 7F14                   ADD         #20,R15
    0000118C 66F6                   MOV.L       @R15+,R6
    0000118E 70F4                   ADD         #-12,R0
    00001190 66F2                   MOV.L       @R15,R6
    00001192 0F66                   MOV.L       R6,@(R0,R15)
    00001194 7FFC                   ADD         #-4,R15
             raster.c        294                          vzstep = divff(vzq-vzp, diff);
    00001196 EDC0                   MOV         #-64,R13   ; H'FFFFFFC0
    00001198 6DDC                   EXTU.B      R13,R13
    0000119A 67F3                   MOV         R15,R7
    0000119C 37DC                   ADD         R13,R7
    0000119E 5671                   MOV.L       @(4,R7),R6
    000011A0 6D72                   MOV.L       @R7,R13
    000011A2 2F66                   MOV.L       R6,@-R15
    000011A4 2FD6                   MOV.L       R13,@-R15
    000011A6 7FF0                   ADD         #-16,R15
    000011A8 7010                   ADD         #16,R0
    000011AA 0DFE                   MOV.L       @(R0,R15),R13
    000011AC 3CD8                   SUB         R13,R12
    000011AE 62C3                   MOV         R12,R2
    000011B0 4200                   SHLL        R2
    000011B2 322A                   SUBC        R2,R2
    000011B4 61F3                   MOV         R15,R1
    000011B6 7108                   ADD         #8,R1
    000011B8 2F22                   MOV.L       R2,@R15
    000011BA 1FC1                   MOV.L       R12,@(4,R15)
    000011BC 2F16                   MOV.L       R1,@-R15
    000011BE 490B                   JSR         @R9
    000011C0 E10A                   MOV         #10,R1     ; H'0000000A
    000011C2 7F0C                   ADD         #12,R15
    000011C4 64F3                   MOV         R15,R4
    000011C6 7410                   ADD         #16,R4
    000011C8 4E0B                   JSR         @R14
    000011CA 2F46                   MOV.L       R4,@-R15
    000011CC 7F14                   ADD         #20,R15
    000011CE 65F6                   MOV.L       @R15+,R5
    000011D0 70F4                   ADD         #-12,R0
    000011D2 65F2                   MOV.L       @R15,R5
    000011D4 0F56                   MOV.L       R5,@(R0,R15)
    000011D6 7F04                   ADD         #4,R15
    000011D8 EE46                   MOV         #70,R14    ; H'00000046
    000011DA 4E08                   SHLL2       R14
    000011DC 3EFC                   ADD         R15,R14
    000011DE 59E6                   MOV.L       @(24,R14),R9
             raster.c        295    
             raster.c        296                          // interpolate between values in current row
             raster.c        297    
             raster.c        298                          for (ozi = ozp, uzi = uzp, vzi = vzp, xiter = minx; xiter <= maxx; xiter += 1, ozi+=ozstep, uzi+=uzstep, vzi+=vzstep) {
    000011E0 0FB6                   MOV.L       R11,@(R0,R15); ozi
    000011E2 7080                   ADD         #-128,R0
    000011E4 0F96                   MOV.L       R9,@(R0,R15); vzi
    000011E6 6BE2                   MOV.L       @R14,R11   ; yiter
    000011E8 70FC                   ADD         #-4,R0
    000011EA 56E5                   MOV.L       @(20,R14),R6
    000011EC 0FA6                   MOV.L       R10,@(R0,R15)
    000011EE 7004                   ADD         #4,R0
    000011F0 4B08                   SHLL2       R11
    000011F2 0AFE                   MOV.L       @(R0,R15),R10; vzi
    000011F4 1E6C                   MOV.L       R6,@(48,R14); uzi
    000011F6 A0CC                   BRA         L105
    000011F8 1EBD                   MOV.L       R11,@(52,R14)
    000011FA              L161:
    000011FA 03FF                   .DATA.W     H'03FF
    000011FC              L106:
             raster.c        299                                  if (xiter >= 0 && xiter <= 127) { 
    000011FC 4811                   CMP/PZ      R8
    000011FE 8901                   BT          L182
    00001200 A0B9                   BRA         L108
    00001202 0009                   NOP
    00001204              L182:
    00001204 E27F                   MOV         #127,R2    ; H'0000007F
    00001206 3827                   CMP/GT      R2,R8
    00001208 8B01                   BF          L183
    0000120A A0B4                   BRA         L108
    0000120C 0009                   NOP
    0000120E              L183:
             raster.c        300                                          zci = divff(int2f(ZREC_MULT*ZREC_MULT), ozi);
    0000120E 7FF0                   ADD         #-16,R15
    00001210 E055                   MOV         #85,R0     ; H'00000055
    00001212 4008                   SHLL2       R0
    00001214 09FE                   MOV.L       @(R0,R15),R9; ozi
    00001216 6293                   MOV         R9,R2
    00001218 4200                   SHLL        R2
    0000121A 322A                   SUBC        R2,R2
    0000121C 2F22                   MOV.L       R2,@R15
    0000121E 1F91                   MOV.L       R9,@(4,R15)
    00001220 7FF0                   ADD         #-16,R15
    00001222 E604                   MOV         #4,R6      ; H'00000004
    00001224 4628                   SHLL16      R6
    00001226 6263                   MOV         R6,R2
    00001228 4200                   SHLL        R2
    0000122A 322A                   SUBC        R2,R2
    0000122C 61F3                   MOV         R15,R1
    0000122E 7108                   ADD         #8,R1
    00001230 2F22                   MOV.L       R2,@R15
    00001232 1F61                   MOV.L       R6,@(4,R15)
    00001234 2F16                   MOV.L       R1,@-R15
    00001236 D433                   MOV.L       L162,R4    ; __shlld64
    00001238 440B                   JSR         @R4
    0000123A E10A                   MOV         #10,R1     ; H'0000000A
    0000123C 7F0C                   ADD         #12,R15
    0000123E 65F3                   MOV         R15,R5
    00001240 7510                   ADD         #16,R5
    00001242 DB31                   MOV.L       L162+4,R11 ; __div64s
    00001244 4B0B                   JSR         @R11
    00001246 2F56                   MOV.L       R5,@-R15
    00001248 7F14                   ADD         #20,R15
    0000124A 66F6                   MOV.L       @R15+,R6
    0000124C 6BF6                   MOV.L       @R15+,R11
    0000124E DC30                   MOV.L       L162+12,R12; H'003FFFFF
             raster.c        301    
             raster.c        302                                          depthval = (f2int(zci) << 5) | ((zci & FIXED_FRAC_MASK) >> 5); // transform 22+10bit zci to 11+5bit depth
    00001250 6DB3                   MOV         R11,R13
    00001252 4C18                   SHLL8       R12
    00001254 4C08                   SHLL2       R12
    00001256 E6F6                   MOV         #-10,R6    ; H'FFFFFFF6
    00001258 69C7                   NOT         R12,R9
    0000125A 64B3                   MOV         R11,R4
    0000125C 4D6C                   SHAD        R6,R13
    0000125E E705                   MOV         #5,R7      ; H'00000005
    00001260 2499                   AND         R9,R4
    00001262 ECFB                   MOV         #-5,R12    ; H'FFFFFFFB
    00001264 4D7C                   SHAD        R7,R13
    00001266 44CC                   SHAD        R12,R4
    00001268 2D4B                   OR          R4,R13
    0000126A 70FC                   ADD         #-4,R0
    0000126C 0FD5                   MOV.W       R13,@(R0,R15); depthval
    0000126E 70FC                   ADD         #-4,R0
             raster.c        303    
             raster.c        304                                          if (depthbuf[yiter][xiter] > depthval) {                        
    00001270 D928                   MOV.L       L162+16,R9 ; _depthbuf
    00001272 0EFE                   MOV.L       @(R0,R15),R14
    00001274 7008                   ADD         #8,R0
    00001276 39EC                   ADD         R14,R9
    00001278 6E83                   MOV         R8,R14
    0000127A 4E00                   SHLL        R14
    0000127C 6192                   MOV.L       @R9,R1     ; depthbuf[]
    0000127E 0FE6                   MOV.L       R14,@(R0,R15)
    00001280 60E3                   MOV         R14,R0
    00001282 051D                   MOV.W       @(R0,R1),R5
    00001284 6DDF                   EXTS.W      R13,R13
    00001286 35D7                   CMP/GT      R13,R5
    00001288 8B75                   BF          L108
             raster.c        305                                                  ui = divshiftfi(mulff(uzi, zci), ZREC_EXP+ZREC_EXP); // only use of divshiftfi is here
             raster.c        306                                                  vi = divshiftfi(mulff(vzi, zci), ZREC_EXP+ZREC_EXP);
             raster.c        307    
             raster.c        308                                                  // index coordinates from the bottom right instead of top left
             raster.c        309                                                  if (t.flip_texture) {
    0000128A 5DF9                   MOV.L       @(36,R15),R13; t.tx
    0000128C 6CD0                   MOV.B       @R13,R12   ; (tx)->w
    0000128E 84D1                   MOV.B       @(1,R13),R0; (tx)->h
    00001290 6ECC                   EXTU.B      R12,R14
    00001292 6D0C                   EXTU.B      R0,R13
    00001294 7FF0                   ADD         #-16,R15
    00001296 3BAD                   DMULS.L     R10,R11
    00001298 64F3                   MOV         R15,R4
    0000129A 7408                   ADD         #8,R4
    0000129C 010A                   STS         MACH,R1
    0000129E 021A                   STS         MACL,R2
    000012A0 2F12                   MOV.L       R1,@R15
    000012A2 1F21                   MOV.L       R2,@(4,R15)
    000012A4 2F46                   MOV.L       R4,@-R15
    000012A6 D519                   MOV.L       L162+8,R5  ; __shard64
    000012A8 450B                   JSR         @R5
    000012AA E10A                   MOV         #10,R1     ; H'0000000A
    000012AC 7F0C                   ADD         #12,R15
    000012AE 66F6                   MOV.L       @R15+,R6
    000012B0 61F6                   MOV.L       @R15+,R1
    000012B2 E4EE                   MOV         #-18,R4    ; H'FFFFFFEE
    000012B4 D518                   MOV.L       L162+20,R5 ; __modls
    000012B6 414C                   SHAD        R4,R1
    000012B8 450B                   JSR         @R5
    000012BA 60E3                   MOV         R14,R0
    000012BC 6C03                   MOV         R0,R12
    000012BE 7FF0                   ADD         #-16,R15
    000012C0 E056                   MOV         #86,R0     ; H'00000056
    000012C2 4008                   SHLL2       R0
    000012C4 06FE                   MOV.L       @(R0,R15),R6; uzi
    000012C6 3B6D                   DMULS.L     R6,R11
    000012C8 0B1A                   STS         MACL,R11
    000012CA 1FB1                   MOV.L       R11,@(4,R15)
    000012CC 6BF3                   MOV         R15,R11
    000012CE 070A                   STS         MACH,R7
    000012D0 7B08                   ADD         #8,R11
    000012D2 2F72                   MOV.L       R7,@R15
    000012D4 2FB6                   MOV.L       R11,@-R15
    000012D6 D70D                   MOV.L       L162+8,R7  ; __shard64
    000012D8 470B                   JSR         @R7
    000012DA E10A                   MOV         #10,R1     ; H'0000000A
    000012DC 7F0C                   ADD         #12,R15
    000012DE 62F6                   MOV.L       @R15+,R2
    000012E0 61F6                   MOV.L       @R15+,R1
    000012E2 60D3                   MOV         R13,R0
    000012E4 450B                   JSR         @R5
    000012E6 414C                   SHAD        R4,R1
    000012E8 6603                   MOV         R0,R6
    000012EA E02C                   MOV         #44,R0     ; H'0000002C
    000012EC 02FC                   MOV.B       @(R0,R15),R2; t.flip_texture
    000012EE 2228                   TST         R2,R2
    000012F0 8914                   BT          L112
             raster.c        310                                pxl = (t.tx->h-1 - f2int(ui)%t.tx->h)*t.tx->w + (t.tx->w-1 - f2int(vi)%t.tx->w);
    000012F2 7DFF                   ADD         #-1,R13
    000012F4 6DDC                   EXTU.B      R13,R13
    000012F6 3D68                   SUB         R6,R13
    000012F8 0ED7                   MUL.L       R13,R14
    000012FA 7EFF                   ADD         #-1,R14
    000012FC 3EC8                   SUB         R12,R14
    000012FE 061A                   STS         MACL,R6
    00001300 A00F                   BRA         L113
    00001302 36EC                   ADD         R14,R6
    00001304              L162:
    00001304 <00000000>             .DATA.L     __shlld64
    00001308 <00000000>             .DATA.L     __div64s
    0000130C <00000000>             .DATA.L     __shard64
    00001310 003FFFFF               .DATA.L     H'003FFFFF
    00001314 <00000000>             .DATA.L     _depthbuf
    00001318 <00000000>             .DATA.L     __modls
    0000131C              L112:
             raster.c        311                            }
             raster.c        312                                                  else {
             raster.c        313                                pxl = (f2int(ui)%t.tx->h)*t.tx->w + (f2int(vi)%t.tx->w);
    0000131C 0E67                   MUL.L       R6,R14
    0000131E 061A                   STS         MACL,R6
    00001320 36CC                   ADD         R12,R6
    00001322              L113:
             raster.c        314                            }
             raster.c        315                                                  px = (t.tx->tx_data[pxl>>2] & (3<<(2*(3-pxl&3)))) >> (2*(3-(pxl&3))); // pxl>>2 = pxl/4; pxl&3 = pxl%4
    00001322 656C                   EXTU.B      R6,R5
    00001324 6053                   MOV         R5,R0
    00001326 C903                   AND         #3,R0
    00001328 5CF9                   MOV.L       @(36,R15),R12; t.tx
    0000132A 4000                   SHLL        R0
    0000132C 4521                   SHAR        R5
    0000132E E406                   MOV         #6,R4      ; H'00000006
    00001330 51C2                   MOV.L       @(8,R12),R1; (tx)->tx_data
    00001332 4521                   SHAR        R5
    00001334 3408                   SUB         R0,R4
    00001336 6053                   MOV         R5,R0
    00001338 0D1C                   MOV.B       @(R0,R1),R13; (tx)->tx_data[]
    0000133A E003                   MOV         #3,R0      ; H'00000003
    0000133C 666C                   EXTU.B      R6,R6
    0000133E 3068                   SUB         R6,R0
    00001340 C903                   AND         #3,R0
    00001342 4000                   SHLL        R0
    00001344 E103                   MOV         #3,R1      ; H'00000003
    00001346 6EDC                   EXTU.B      R13,R14
    00001348 410C                   SHAD        R0,R1
    0000134A 2E19                   AND         R1,R14
    0000134C 644B                   NEG         R4,R4
    0000134E 4E4C                   SHAD        R4,R14
             raster.c        316                                                  if (!(px & 2)) {
    00001350 60E3                   MOV         R14,R0
    00001352 C802                   TST         #2,R0
    00001354 8B0F                   BF          L108
             raster.c        317                                                          Bdisp_SetPoint_VRAM(xiter, yiter, px & 1);
    00001356 C901                   AND         #1,R0
    00001358 6603                   MOV         R0,R6
    0000135A E046                   MOV         #70,R0     ; H'00000046
    0000135C 4008                   SHLL2       R0
    0000135E D7B2                   MOV.L       L164+2,R7  ; _Bdisp_SetPoint_VRAM
    00001360 05FE                   MOV.L       @(R0,R15),R5; yiter
    00001362 470B                   JSR         @R7
    00001364 6483                   MOV         R8,R4
    00001366 E055                   MOV         #85,R0     ; H'00000055
    00001368 4008                   SHLL2       R0
             raster.c        318                                                          depthbuf[yiter][xiter] = depthval;
    0000136A 6B92                   MOV.L       @R9,R11    ; depthbuf[]
    0000136C 0CFE                   MOV.L       @(R0,R15),R12
    0000136E 70FC                   ADD         #-4,R0
    00001370 0DFD                   MOV.W       @(R0,R15),R13; depthval
    00001372 3BCC                   ADD         R12,R11
    00001374 2BD1                   MOV.W       R13,@R11
    00001376              L108:
    00001376 E14E                   MOV         #78,R1     ; H'0000004E
    00001378 4108                   SHLL2       R1
    0000137A 31FC                   ADD         R15,R1
    0000137C 6412                   MOV.L       @R1,R4
    0000137E 5E13                   MOV.L       @(12,R1),R14; ozi
    00001380 5611                   MOV.L       @(4,R1),R6
    00001382 5514                   MOV.L       @(16,R1),R5; uzi
    00001384 3E4C                   ADD         R4,R14
    00001386 356C                   ADD         R6,R5
    00001388 5712                   MOV.L       @(8,R1),R7
    0000138A 11E3                   MOV.L       R14,@(12,R1); ozi
    0000138C 1154                   MOV.L       R5,@(16,R1); uzi
    0000138E 3A7C                   ADD         R7,R10
    00001390 7801                   ADD         #1,R8
    00001392              L105:
    00001392 E04D                   MOV         #77,R0     ; H'0000004D
    00001394 4008                   SHLL2       R0
    00001396 02FE                   MOV.L       @(R0,R15),R2; maxx
    00001398 3827                   CMP/GT      R2,R8
    0000139A 8901                   BT          L184
    0000139C AF2E                   BRA         L106
    0000139E 0009                   NOP
    000013A0              L184:
    000013A0 E0C0                   MOV         #-64,R0    ; H'FFFFFFC0
    000013A2 600C                   EXTU.B      R0,R0
    000013A4 A003                   BRA         L87
    000013A6 0AFE                   MOV.L       @(R0,R15),R10
    000013A8              L98:
    000013A8 E0CC                   MOV         #-52,R0    ; H'FFFFFFCC
    000013AA 600C                   EXTU.B      R0,R0
    000013AC 0AFE                   MOV.L       @(R0,R15),R10
    000013AE              L87:
    000013AE E046                   MOV         #70,R0     ; H'00000046
    000013B0 4008                   SHLL2       R0
    000013B2 02FE                   MOV.L       @(R0,R15),R2; yiter
    000013B4 7201                   ADD         #1,R2
    000013B6 0F26                   MOV.L       R2,@(R0,R15); yiter
    000013B8              L83:
    000013B8 E046                   MOV         #70,R0     ; H'00000046
    000013BA 4008                   SHLL2       R0
    000013BC 06FE                   MOV.L       @(R0,R15),R6; yiter
    000013BE 7040                   ADD         #64,R0
    000013C0 02FE                   MOV.L       @(R0,R15),R2
    000013C2 3627                   CMP/GT      R2,R6
    000013C4 8901                   BT          L185
    000013C6 AB74                   BRA         L84
    000013C8 0009                   NOP
    000013CA              L185:
    000013CA              L40:
    000013CA E0E4                   MOV         #-28,R0    ; H'FFFFFFE4
    000013CC 600C                   EXTU.B      R0,R0
    000013CE 0EFE                   MOV.L       @(R0,R15),R14; curr_tidx
    000013D0 7E01                   ADD         #1,R14
    000013D2 0FE6                   MOV.L       R14,@(R0,R15); curr_tidx
    000013D4              L37:
    000013D4 D195                   MOV.L       L164+6,R1  ; _tbuf_idx
    000013D6 E0E4                   MOV         #-28,R0    ; H'FFFFFFE4
    000013D8 6611                   MOV.W       @R1,R6     ; tbuf_idx
    000013DA 600C                   EXTU.B      R0,R0
    000013DC 0EFE                   MOV.L       @(R0,R15),R14; curr_tidx
    000013DE 626D                   EXTU.W      R6,R2
    000013E0 3E23                   CMP/GE      R2,R14
    000013E2 8902                   BT          L186
    000013E4 D392                   MOV.L       L164+10,R3 ; L38
    000013E6 432B                   JMP         @R3
    000013E8 0009                   NOP
    000013EA              L186:
             raster.c        319                                                  }
             raster.c        320                                          }
             raster.c        321                                  }
             raster.c        322                          }
             raster.c        323                  }       
             raster.c        324          }
             raster.c        325    
             raster.c        326          return q_cnt;
    000013EA E0E0                   MOV         #-32,R0    ; H'FFFFFFE0
    000013EC 600C                   EXTU.B      R0,R0
    000013EE 00FE                   MOV.L       @(R0,R15),R0; q_cnt
    000013F0 93C6                   MOV.W       L163,R3    ; H'015C
    000013F2 3F3C                   ADD         R3,R15
    000013F4 4F06                   LDS.L       @R15+,MACH
    000013F6 4F16                   LDS.L       @R15+,MACL
    000013F8 4F26                   LDS.L       @R15+,PR
    000013FA 6EF6                   MOV.L       @R15+,R14
    000013FC 6DF6                   MOV.L       @R15+,R13
    000013FE 6CF6                   MOV.L       @R15+,R12
    00001400 6BF6                   MOV.L       @R15+,R11
    00001402 6AF6                   MOV.L       @R15+,R10
    00001404 69F6                   MOV.L       @R15+,R9
             raster.c        327    }
    00001406 000B                   RTS
    00001408 68F6                   MOV.L       @R15+,R8
             raster.c        328    
             raster.c        329    void g_text3d(unsigned char *text, vec3f pos, unsigned int params) {
    0000140A              _g_text3d:                       ; function: g_text3d
                                                           ; frame size=116
    0000140A 2FA6                   MOV.L       R10,@-R15
    0000140C 2FB6                   MOV.L       R11,@-R15
    0000140E 2FC6                   MOV.L       R12,@-R15
    00001410 2FD6                   MOV.L       R13,@-R15
    00001412 2FE6                   MOV.L       R14,@-R15
    00001414 4F22                   STS.L       PR,@-R15
    00001416 4F12                   STS.L       MACL,@-R15
    00001418 4F02                   STS.L       MACH,@-R15
    0000141A 7FE0                   ADD         #-32,R15
             raster.c        330          int sspace_x, sspace_y;
             raster.c        331          vec3f viewport_pos;
             raster.c        332          vec3f ctot;
             raster.c        333    
             raster.c        334          ctot = subvv(pos, go);
    0000141C 6D53                   MOV         R5,R13
    0000141E 6C43                   MOV         R4,R12
    00001420 7FF4                   ADD         #-12,R15
    00001422 D284                   MOV.L       L164+14,R2 ; _go
    00001424 D484                   MOV.L       L164+18,R4 ; __quick_odd_mvn
    00001426 EB0C                   MOV         #12,R11    ; H'0000000C
    00001428 61F3                   MOV         R15,R1
    0000142A 440B                   JSR         @R4
    0000142C 60B3                   MOV         R11,R0
    0000142E 7FF4                   ADD         #-12,R15
    00001430 62F3                   MOV         R15,R2
    00001432 61F3                   MOV         R15,R1
    00001434 7258                   ADD         #88,R2
    00001436 440B                   JSR         @R4
    00001438 60B3                   MOV         R11,R0
    0000143A 61F3                   MOV         R15,R1
    0000143C 7118                   ADD         #24,R1
    0000143E DB7F                   MOV.L       L164+22,R11; _subvv
    00001440 4B0B                   JSR         @R11
    00001442 2F16                   MOV.L       R1,@-R15
    00001444 7F04                   ADD         #4,R15
    00001446 D27B                   MOV.L       L164+14,R2 ; _go
    00001448 EE0C                   MOV         #12,R14    ; H'0000000C
    0000144A D77B                   MOV.L       L164+18,R7 ; __quick_odd_mvn
             raster.c        335          viewport_pos = rot(subvv(pos, go), -gp, -gy);
    0000144C 61F3                   MOV         R15,R1
    0000144E 470B                   JSR         @R7
    00001450 60E3                   MOV         R14,R0
    00001452 7FF4                   ADD         #-12,R15
    00001454 62F3                   MOV         R15,R2
    00001456 64F3                   MOV         R15,R4
    00001458 61F3                   MOV         R15,R1
    0000145A 7264                   ADD         #100,R2
    0000145C 60E3                   MOV         R14,R0
    0000145E 470B                   JSR         @R7
    00001460 7418                   ADD         #24,R4
    00001462 DE76                   MOV.L       L164+22,R14; _subvv
    00001464 4E0B                   JSR         @R14
    00001466 2F46                   MOV.L       R4,@-R15
    00001468 7F1C                   ADD         #28,R15
    0000146A D275                   MOV.L       L164+26,R2 ; _gy
    0000146C D475                   MOV.L       L164+30,R4 ; _gp
    0000146E 6722                   MOV.L       @R2,R7     ; gy
    00001470 6A42                   MOV.L       @R4,R10    ; gp
    00001472 6BF3                   MOV         R15,R11
    00001474 7B18                   ADD         #24,R11
    00001476 657B                   NEG         R7,R5
    00001478 64AB                   NEG         R10,R4
    0000147A DE73                   MOV.L       L164+34,R14; _rot
    0000147C 4E0B                   JSR         @R14
    0000147E 2FB6                   MOV.L       R11,@-R15
    00001480 7F10                   ADD         #16,R15
             raster.c        336    
             raster.c        337          sspace_x = f2int(divff(mulff(viewport_pos.x, int2f(64)), -viewport_pos.z)) + 64;
    00001482 51F5                   MOV.L       @(20,R15),R1; viewport_pos.z
    00001484 651B                   NEG         R1,R5
    00001486 6253                   MOV         R5,R2
    00001488 4200                   SHLL        R2
    0000148A 322A                   SUBC        R2,R2
    0000148C 1F26                   MOV.L       R2,@(24,R15)
    0000148E 1F57                   MOV.L       R5,@(28,R15)
    00001490 7FF8                   ADD         #-8,R15
    00001492 6AF3                   MOV         R15,R10
    00001494 7A20                   ADD         #32,R10
    00001496 54A1                   MOV.L       @(4,R10),R4
    00001498 67A2                   MOV.L       @R10,R7
    0000149A 2F46                   MOV.L       R4,@-R15
    0000149C 2F76                   MOV.L       R7,@-R15
    0000149E 7FE0                   ADD         #-32,R15
    000014A0 E401                   MOV         #1,R4      ; H'00000001
    000014A2 55FF                   MOV.L       @(60,R15),R5; viewport_pos.x
    000014A4 4428                   SHLL16      R4
    000014A6 345D                   DMULS.L     R5,R4
    000014A8 0A0A                   STS         MACH,R10
    000014AA 2FA2                   MOV.L       R10,@R15
    000014AC 6AF3                   MOV         R15,R10
    000014AE 071A                   STS         MACL,R7
    000014B0 7A08                   ADD         #8,R10
    000014B2 1F71                   MOV.L       R7,@(4,R15)
    000014B4 2FA6                   MOV.L       R10,@-R15
    000014B6 DA65                   MOV.L       L164+38,R10; __shard64
    000014B8 4A0B                   JSR         @R10
    000014BA E10A                   MOV         #10,R1     ; H'0000000A
    000014BC 7F0C                   ADD         #12,R15
    000014BE 62F6                   MOV.L       @R15+,R2
    000014C0 6BF6                   MOV.L       @R15+,R11
    000014C2 62B3                   MOV         R11,R2
    000014C4 4200                   SHLL        R2
    000014C6 322A                   SUBC        R2,R2
    000014C8 1FB1                   MOV.L       R11,@(4,R15)
    000014CA 6BF3                   MOV         R15,R11
    000014CC 7B08                   ADD         #8,R11
    000014CE 2F22                   MOV.L       R2,@R15
    000014D0 2FB6                   MOV.L       R11,@-R15
    000014D2 DB5F                   MOV.L       L164+42,R11; __shlld64
    000014D4 4B0B                   JSR         @R11
    000014D6 E10A                   MOV         #10,R1     ; H'0000000A
    000014D8 7F0C                   ADD         #12,R15
    000014DA 6EF3                   MOV         R15,R14
    000014DC 7E10                   ADD         #16,R14
    000014DE D75D                   MOV.L       L164+46,R7 ; __div64s
    000014E0 470B                   JSR         @R7
    000014E2 2FE6                   MOV.L       R14,@-R15
    000014E4 7F14                   ADD         #20,R15
    000014E6 61F6                   MOV.L       @R15+,R1
    000014E8 6EF6                   MOV.L       @R15+,R14
    000014EA E1F6                   MOV         #-10,R1    ; H'FFFFFFF6
    000014EC 4E1C                   SHAD        R1,R14
    000014EE 7E40                   ADD         #64,R14
             raster.c        338          sspace_y = f2int(divff(mulff(viewport_pos.y, int2f(64)), -viewport_pos.z)) + 32;
    000014F0 7FF8                   ADD         #-8,R15
    000014F2 65F3                   MOV         R15,R5
    000014F4 7520                   ADD         #32,R5
    000014F6 5151                   MOV.L       @(4,R5),R1
    000014F8 6652                   MOV.L       @R5,R6
    000014FA 2F16                   MOV.L       R1,@-R15
    000014FC 2F66                   MOV.L       R6,@-R15
    000014FE 7FE0                   ADD         #-32,R15
    00001500 E040                   MOV         #64,R0     ; H'00000040
    00001502 05FE                   MOV.L       @(R0,R15),R5; viewport_pos.y
    00001504 345D                   DMULS.L     R5,R4
    00001506 64F3                   MOV         R15,R4
    00001508 7408                   ADD         #8,R4
    0000150A 060A                   STS         MACH,R6
    0000150C 011A                   STS         MACL,R1
    0000150E 2F62                   MOV.L       R6,@R15
    00001510 1F11                   MOV.L       R1,@(4,R15)
    00001512 2F46                   MOV.L       R4,@-R15
    00001514 4A0B                   JSR         @R10
    00001516 E10A                   MOV         #10,R1     ; H'0000000A
    00001518 7F0C                   ADD         #12,R15
    0000151A 62F6                   MOV.L       @R15+,R2
    0000151C 66F6                   MOV.L       @R15+,R6
    0000151E 6263                   MOV         R6,R2
    00001520 4200                   SHLL        R2
    00001522 322A                   SUBC        R2,R2
    00001524 65F3                   MOV         R15,R5
    00001526 7508                   ADD         #8,R5
    00001528 2F22                   MOV.L       R2,@R15
    0000152A 1F61                   MOV.L       R6,@(4,R15)
    0000152C 2F56                   MOV.L       R5,@-R15
    0000152E 4B0B                   JSR         @R11
    00001530 E10A                   MOV         #10,R1     ; H'0000000A
    00001532 7F0C                   ADD         #12,R15
    00001534 66F3                   MOV         R15,R6
    00001536 7610                   ADD         #16,R6
    00001538 470B                   JSR         @R7
    0000153A 2F66                   MOV.L       R6,@-R15
    0000153C 7F14                   ADD         #20,R15
    0000153E 67F6                   MOV.L       @R15+,R7
    00001540 65F6                   MOV.L       @R15+,R5
             raster.c        339    
             raster.c        340          // is in view?
             raster.c        341          if (viewport_pos.z < float2f(0.25f)) {                                                                  
    00001542 EA01                   MOV         #1,R10     ; H'00000001
    00001544 56F5                   MOV.L       @(20,R15),R6; viewport_pos.z
    00001546 4A18                   SHLL8       R10
    00001548 36A3                   CMP/GE      R10,R6
    0000154A E7F6                   MOV         #-10,R7    ; H'FFFFFFF6
    0000154C 457C                   SHAD        R7,R5
    0000154E 8F22                   BF/S        L119
    00001550 7520                   ADD         #32,R5
             raster.c        342                  return;
             raster.c        343          }
             raster.c        344           
             raster.c        345          if (sspace_x <= 127 && sspace_x >= 0 && sspace_y <= 63 && sspace_y >= 0) {
    00001552 E27F                   MOV         #127,R2    ; H'0000007F
    00001554 3E27                   CMP/GT      R2,R14
    00001556 891E                   BT          L119
    00001558 4E11                   CMP/PZ      R14
    0000155A 8B1C                   BF          L119
    0000155C E23F                   MOV         #63,R2     ; H'0000003F
    0000155E 3527                   CMP/GT      R2,R5
    00001560 8919                   BT          L119
    00001562 4511                   CMP/PZ      R5
    00001564 8B17                   BF          L119
    00001566 60D3                   MOV         R13,R0
    00001568 C801                   TST         #1,R0
    0000156A 890A                   BT          L125
    0000156C C804                   TST         #4,R0
    0000156E 64E3                   MOV         R14,R4
    00001570 8D01                   BT/S        L127
    00001572 E710                   MOV         #16,R7     ; H'00000010
    00001574 E712                   MOV         #18,R7     ; H'00000012
    00001576              L127:
    00001576 D238                   MOV.L       L164+50,R2 ; _PrintMini
    00001578 420B                   JSR         @R2
    0000157A 66C3                   MOV         R12,R6
    0000157C A00B                   BRA         L119
    0000157E 0009                   NOP
    00001580              L163:
    00001580 015C                   .DATA.W     H'015C
    00001582              L125:
    00001582 C802                   TST         #2,R0
    00001584 8907                   BT          L119
    00001586 C804                   TST         #4,R0
    00001588 64E3                   MOV         R14,R4
    0000158A 8D01                   BT/S        L130
    0000158C E710                   MOV         #16,R7     ; H'00000010
    0000158E E712                   MOV         #18,R7     ; H'00000012
    00001590              L130:
    00001590 D232                   MOV.L       L164+54,R2 ; _PrintXY
    00001592 420B                   JSR         @R2
    00001594 66C3                   MOV         R12,R6
    00001596              L119:
    00001596 7F20                   ADD         #32,R15
    00001598 4F06                   LDS.L       @R15+,MACH
    0000159A 4F16                   LDS.L       @R15+,MACL
    0000159C 4F26                   LDS.L       @R15+,PR
    0000159E 6EF6                   MOV.L       @R15+,R14
    000015A0 6DF6                   MOV.L       @R15+,R13
    000015A2 6CF6                   MOV.L       @R15+,R12
    000015A4 6BF6                   MOV.L       @R15+,R11
             raster.c        346                  g_text2d(text, sspace_x, sspace_y, params);
             raster.c        347          }
             raster.c        348    }
    000015A6 000B                   RTS
    000015A8 6AF6                   MOV.L       @R15+,R10
             raster.c        349    
             raster.c        350    void g_text2d(unsigned char *text, unsigned int x, unsigned int y, unsigned int params) {
    000015AA              _g_text2d:                       ; function: g_text2d
                                                           ; frame size=0
    000015AA 6073                   MOV         R7,R0
             raster.c        351          if (params & TEXT_SMALL) {
    000015AC C801                   TST         #1,R0
    000015AE 8D09                   BT/S        L133
    000015B0 6143                   MOV         R4,R1
    000015B2 C804                   TST         #4,R0
             raster.c        352                  PrintMini(x, y, text, (params & TEXT_INVERTED) ? MINI_REV : MINI_OVER);
    000015B4 6453                   MOV         R5,R4
    000015B6 6563                   MOV         R6,R5
    000015B8 8D01                   BT/S        L135
    000015BA E710                   MOV         #16,R7     ; H'00000010
    000015BC E712                   MOV         #18,R7     ; H'00000012
    000015BE              L135:
    000015BE D226                   MOV.L       L164+50,R2 ; _PrintMini
    000015C0 422B                   JMP         @R2
    000015C2 6613                   MOV         R1,R6
    000015C4              L133:
             raster.c        353          }
             raster.c        354          else if (params & TEXT_LARGE) {
    000015C4 C802                   TST         #2,R0
    000015C6 8908                   BT          L138
    000015C8 C804                   TST         #4,R0
             raster.c        355                  PrintXY(x, y, text, (params & TEXT_INVERTED) ? MINI_REV : MINI_OVER);
    000015CA 6453                   MOV         R5,R4
    000015CC 6563                   MOV         R6,R5
    000015CE 8D01                   BT/S        L140
    000015D0 E710                   MOV         #16,R7     ; H'00000010
    000015D2 E712                   MOV         #18,R7     ; H'00000012
    000015D4              L140:
    000015D4 D221                   MOV.L       L164+54,R2 ; _PrintXY
    000015D6 422B                   JMP         @R2
    000015D8 6613                   MOV         R1,R6
    000015DA              L138:
    000015DA 000B                   RTS
    000015DC 0009                   NOP
             raster.c        356          }
             raster.c        357    }
             raster.c        358    
             raster.c        359    void g_texture2d(texture_ptr_t tx, unsigned int x, unsigned int y) {
    000015DE              _g_texture2d:                    ; function: g_texture2d
                                                           ; frame size=44
    000015DE 2F86                   MOV.L       R8,@-R15
    000015E0 2F96                   MOV.L       R9,@-R15
    000015E2 2FA6                   MOV.L       R10,@-R15
    000015E4 2FB6                   MOV.L       R11,@-R15
    000015E6 2FC6                   MOV.L       R12,@-R15
    000015E8 2FD6                   MOV.L       R13,@-R15
    000015EA 2FE6                   MOV.L       R14,@-R15
    000015EC 4F22                   STS.L       PR,@-R15
    000015EE 4F12                   STS.L       MACL,@-R15
    000015F0 7FF8                   ADD         #-8,R15
    000015F2 8444                   MOV.B       @(4,R4),R0 ; (part of)(tx)->
    000015F4 6953                   MOV         R5,R9
    000015F6 6540                   MOV.B       @R4,R5     ; (tx)->w
    000015F8 E1FC                   MOV         #-4,R1     ; H'FFFFFFFC
    000015FA 6A43                   MOV         R4,R10
    000015FC 640C                   EXTU.B      R0,R4
    000015FE 655C                   EXTU.B      R5,R5
    00001600 441D                   SHLD        R1,R4
    00001602 0457                   MUL.L       R5,R4
    00001604 6203                   MOV         R0,R2
             raster.c        360          unsigned int xiter, yiter;
             raster.c        361          uint8_t px;
             raster.c        362          unsigned int px_offset;
             raster.c        363          unsigned int tiled_width = tx->w * tx->u_tile_size;
    00001606 6E63                   MOV         R6,R14
             raster.c        364          unsigned int tiled_height = tx->h * tx->v_tile_size;
             raster.c        365          for (yiter = 0; yiter < tiled_height; yiter++) {
    00001608 EC00                   MOV         #0,R12     ; H'00000000
    0000160A 84A1                   MOV.B       @(1,R10),R0; (tx)->h
    0000160C 011A                   STS         MACL,R1
    0000160E 670C                   EXTU.B      R0,R7
    00001610 6023                   MOV         R2,R0
    00001612 C90F                   AND         #15,R0
    00001614 0077                   MUL.L       R7,R0
    00001616 1F11                   MOV.L       R1,@(4,R15)
    00001618 A059                   BRA         L142
    0000161A 081A                   STS         MACL,R8
    0000161C              L143:
    0000161C 2F82                   MOV.L       R8,@R15
    0000161E 58F1                   MOV.L       @(4,R15),R8
             raster.c        366                  for (xiter = 0; xiter < tiled_width; xiter++) {
    00001620 ED00                   MOV         #0,R13     ; H'00000000
    00001622 A04F                   BRA         L144
    00001624 6B93                   MOV         R9,R11
    00001626              L164:
    00001626 00000002               .RES.W      1
    00001628 <00000000>             .DATA.L     _Bdisp_SetPoint_VRAM
    0000162C <00000000>             .DATA.L     _tbuf_idx
    00001630 <00000000>             .DATA.L     L38
    00001634 <00000000>             .DATA.L     _go
    00001638 <00000000>             .DATA.L     __quick_odd_mvn
    0000163C <00000000>             .DATA.L     _subvv
    00001640 <00000000>             .DATA.L     _gy
    00001644 <00000000>             .DATA.L     _gp
    00001648 <00000000>             .DATA.L     _rot
    0000164C <00000000>             .DATA.L     __shard64
    00001650 <00000000>             .DATA.L     __shlld64
    00001654 <00000000>             .DATA.L     __div64s
    00001658 <00000000>             .DATA.L     _PrintMini
    0000165C <00000000>             .DATA.L     _PrintXY
    00001660              L145:
             raster.c        367                          if (xiter+x >= 0 && xiter+x < 128 && yiter+y >= 0 && yiter+y < 64) {
    00001660 E280                   MOV         #-128,R2   ; H'FFFFFF80
    00001662 622C                   EXTU.B      R2,R2
    00001664 3B22                   CMP/HS      R2,R11
    00001666 892B                   BT          L147
    00001668 E240                   MOV         #64,R2     ; H'00000040
    0000166A 3E22                   CMP/HS      R2,R14
    0000166C 8928                   BT          L147
    0000166E 84A1                   MOV.B       @(1,R10),R0; (tx)->h
             raster.c        368                                  px_offset = ((yiter % tx->h) * tx->w) + xiter % tx->w;
    00001670 62A0                   MOV.B       @R10,R2    ; (tx)->w
    00001672 D51D                   MOV.L       L165,R5    ; __modlu
    00001674 600C                   EXTU.B      R0,R0
    00001676 61C3                   MOV         R12,R1
    00001678 450B                   JSR         @R5
    0000167A 622C                   EXTU.B      R2,R2
    0000167C 0207                   MUL.L       R0,R2
    0000167E 61D3                   MOV         R13,R1
    00001680 450B                   JSR         @R5
    00001682 6023                   MOV         R2,R0
    00001684 071A                   STS         MACL,R7
    00001686 370C                   ADD         R0,R7
    00001688 6073                   MOV         R7,R0
             raster.c        369                                  px = (tx->tx_data[px_offset>>2] & (3<<(2*(3-px_offset&3)))) >> (2*(3-(px_offset&3)));
    0000168A E503                   MOV         #3,R5      ; H'00000003
    0000168C C903                   AND         #3,R0
    0000168E 3508                   SUB         R0,R5
    00001690 52A2                   MOV.L       @(8,R10),R2; (tx)->tx_data
    00001692 6073                   MOV         R7,R0
    00001694 4009                   SHLR2       R0
    00001696 062C                   MOV.B       @(R0,R2),R6; (tx)->tx_data[]
    00001698 E003                   MOV         #3,R0      ; H'00000003
    0000169A 3078                   SUB         R7,R0
    0000169C C903                   AND         #3,R0
    0000169E 4500                   SHLL        R5
    000016A0 4000                   SHLL        R0
    000016A2 E703                   MOV         #3,R7      ; H'00000003
    000016A4 646C                   EXTU.B      R6,R4
    000016A6 470C                   SHAD        R0,R7
    000016A8 2479                   AND         R7,R4
    000016AA 655B                   NEG         R5,R5
    000016AC 445C                   SHAD        R5,R4
             raster.c        370                                  if (!(px & 2)) {
    000016AE 6043                   MOV         R4,R0
    000016B0 C802                   TST         #2,R0
    000016B2 8B05                   BF          L147
             raster.c        371                                          Bdisp_SetPoint_VRAM(xiter+x, yiter+y, px & 1);
    000016B4 C901                   AND         #1,R0
    000016B6 D20D                   MOV.L       L165+4,R2  ; _Bdisp_SetPoint_VRAM
    000016B8 6603                   MOV         R0,R6
    000016BA 65E3                   MOV         R14,R5
    000016BC 420B                   JSR         @R2
    000016BE 64B3                   MOV         R11,R4
    000016C0              L147:
    000016C0 7D01                   ADD         #1,R13
    000016C2 7B01                   ADD         #1,R11
    000016C4              L144:
    000016C4 3D82                   CMP/HS      R8,R13
    000016C6 8BCB                   BF          L145
    000016C8 68F2                   MOV.L       @R15,R8
    000016CA 7C01                   ADD         #1,R12
    000016CC 7E01                   ADD         #1,R14
    000016CE              L142:
    000016CE 3C82                   CMP/HS      R8,R12
    000016D0 8BA4                   BF          L143
    000016D2 7F08                   ADD         #8,R15
    000016D4 4F16                   LDS.L       @R15+,MACL
    000016D6 4F26                   LDS.L       @R15+,PR
    000016D8 6EF6                   MOV.L       @R15+,R14
    000016DA 6DF6                   MOV.L       @R15+,R13
    000016DC 6CF6                   MOV.L       @R15+,R12
    000016DE 6BF6                   MOV.L       @R15+,R11
    000016E0 6AF6                   MOV.L       @R15+,R10
    000016E2 69F6                   MOV.L       @R15+,R9
             raster.c        372                                  }
             raster.c        373                          }
             raster.c        374                  }
             raster.c        375          }
             raster.c        376    }
    000016E4 000B                   RTS
    000016E6 68F6                   MOV.L       @R15+,R8
    000016E8              L165:
    000016E8 <00000000>             .DATA.L     __modlu
    000016EC <00000000>             .DATA.L     _Bdisp_SetPoint_VRAM
D   00000000              _tbuf_idx:                       ; static: tbuf_idx
    00000000 0000                   .DATA.W     H'0000
    00000002 00000002               .RES.W      1
    00000004              _g_uuid:                         ; static: g_uuid
    00000004 00000001               .DATA.L     H'00000001
    00000008              _frame:                          ; static: frame
    00000008 00000000               .DATA.L     H'00000000
B   00000000              _gp:                             ; static: gp
    00000000 00000004               .RES.L      1
    00000004              _gy:                             ; static: gy
    00000004 00000004               .RES.L      1
    00000008              _go:                             ; static: go
    00000008 00000004               .RES.L      3
    00000014              _tbuf:                           ; static: tbuf
    00000014 00000004               .RES.L      1
    00000018              _depthbuf:                       ; static: depthbuf
    00000018 00000004               .RES.L      64
    00000118              _vram:                           ; static: vram
    00000118 00000004               .RES.L      1
SH SERIES C/C++ Compiler (V.9.04.02.001)                                                         21-Sep-2024 11:42:24  PAGE    1


******** STATISTICS INFORMATION ********


********** ERROR INFORMATION ***********

NUMBER OF ERRORS:           0
NUMBER OF WARNINGS:         0




******* SOURCE LINE INFORMATION ********

COMPILED SOURCE LINE:      376



******* SECTION SIZE INFORMATION *******

PROGRAM  SECTION (P):                                 000016F0 Byte(s)
CONSTANT SECTION (C):                                 00000000 Byte(s)
DATA     SECTION (D):                                 0000000C Byte(s)
BSS      SECTION (B):                                 0000011C Byte(s)

TOTAL PROGRAM  SECTION: 000016F0 Byte(s)
TOTAL CONSTANT SECTION: 00000000 Byte(s)
TOTAL DATA     SECTION: 0000000C Byte(s)
TOTAL BSS      SECTION: 0000011C Byte(s)

    TOTAL PROGRAM SIZE: 00001818 Byte(s)



********** LABEL INFORMATION ***********

NUMBER OF EXTERNAL REFERENCE SYMBOLS:           23
NUMBER OF EXTERNAL DEFINITION SYMBOLS:          19
NUMBER OF INTERNAL/EXTERNAL SYMBOLS:           137



*** COMMAND PARAMETER ***

-subcommand=C:\Users\csani\AppData\Local\Temp\hmk39CF.tmp
-cpu=sh3
-include="C:\CasioSDK\OS\FX\include","C:\CasioSDK\Projects\VIMS3D"
-objectfile="C:\CasioSDK\Projects\VIMS3D\Debug\raster.obj"
-show=source
-listfile="C:\CasioSDK\Projects\VIMS3D\Debug\raster.lst"
-size
-inline
-chgincpath
-errorpath
"C:\CasioSDK\Projects\VIMS3D\raster.c"
-lang=c
-nologo
-debug
